ccopy_reg
_reconstructor
p0
(cFWCore.ParameterSet.Config
Process
p1
c__builtin__
object
p2
Ntp3
Rp4
(dp5
S'MessageLogger'
p6
g0
(cFWCore.ParameterSet.Modules
Service
p7
g2
Ntp8
Rp9
(dp10
S'_isFrozen'
p11
I00
sS'suppressInfo'
p12
g0
(cFWCore.ParameterSet.Types
vstring
p13
c__builtin__
list
p14
(lp15
tp16
Rp17
(dp18
g11
I00
sS'_ParameterTypeBase__isTracked'
p19
I00
sS'_isModified'
p20
I00
sS'_nPerLine'
p21
I1
sbsS'suppressDebug'
p22
g0
(g13
g14
(lp23
tp24
Rp25
(dp26
g11
I00
sg19
I00
sg20
I00
sg21
I1
sbsS'cout'
p27
g0
(cFWCore.ParameterSet.Types
PSet
p28
g2
Ntp29
Rp30
(dp31
g11
I00
sg19
I00
sS'placeholder'
p32
g0
(cFWCore.ParameterSet.Types
bool
p33
g2
Ntp34
Rp35
(dp36
g11
I00
sg19
I00
sS'_value'
p37
I01
sg20
I00
sbsg20
I00
sS'_Parameterizable__parameterNames'
p38
(lp39
g32
asbsS'_lineNumber'
p40
I10
sS'debugModules'
p41
g0
(g13
g14
(lp42
tp43
Rp44
(dp45
g11
I00
sg19
I00
sg20
I00
sg21
I1
sbsS'_TypedParameterizable__type'
p46
g6
sS'fwkJobReports'
p47
g0
(g13
g14
(lp48
S'FrameworkJobReport'
p49
atp50
Rp51
(dp52
g11
I00
sg19
I00
sg20
I00
sg21
I1
sbsg38
(lp53
g12
aS'debugs'
p54
ag22
ag27
aS'cerr_stats'
p55
aS'warnings'
p56
aS'default'
p57
aS'statistics'
p58
aS'cerr'
p59
ag49
aS'suppressWarning'
p60
aS'errors'
p61
aS'destinations'
p62
ag41
aS'infos'
p63
aS'categories'
p64
ag47
asg58
g0
(g13
g14
(lp65
g55
atp66
Rp67
(dp68
g11
I00
sg19
I00
sg20
I00
sg21
I1
sbsS'_filename'
p69
S'/cvmfs/cms.cern.ch/slc6_amd64_gcc491/cms/cmssw-patch/CMSSW_7_5_8_patch3/python/FWCore/ParameterSet/Modules.py'
p70
sg62
g0
(g13
g14
(lp71
g56
ag61
ag63
ag54
ag27
ag59
atp72
Rp73
(dp74
g11
I00
sg19
I00
sg20
I00
sg21
I1
sbsg54
g0
(g28
g2
Ntp75
Rp76
(dp77
g11
I00
sg19
I00
sg32
g0
(g33
g2
Ntp78
Rp79
(dp80
g11
I00
sg19
I00
sg37
I01
sg20
I00
sbsg20
I00
sg38
(lp81
g32
asbsg56
g0
(g28
g2
Ntp82
Rp83
(dp84
g11
I00
sg19
I00
sg32
g0
(g33
g2
Ntp85
Rp86
(dp87
g11
I00
sg19
I00
sg37
I01
sg20
I00
sbsg20
I00
sg38
(lp88
g32
asbsg61
g0
(g28
g2
Ntp89
Rp90
(dp91
g11
I00
sg19
I00
sg32
g0
(g33
g2
Ntp92
Rp93
(dp94
g11
I00
sg19
I00
sg37
I01
sg20
I00
sbsg20
I00
sg38
(lp95
g32
asbsg49
g0
(g28
g2
Ntp96
Rp97
(dp98
g11
I00
sg19
I00
sg20
I00
sg57
g0
(g28
g2
Ntp99
Rp100
(dp101
g11
I00
sg19
I00
sS'limit'
p102
g0
(cFWCore.ParameterSet.Types
int32
p103
g2
Ntp104
Rp105
(dp106
g11
I00
sg19
I00
sg37
I0
sg20
I00
sbsg20
I00
sg38
(lp107
g102
asbsS'FwkJob'
p108
g0
(g28
g2
Ntp109
Rp110
(dp111
g11
I00
sg19
I00
sg20
I00
sg102
g0
(g103
g2
Ntp112
Rp113
(dp114
g11
I00
sg19
I00
sg37
I10000000
sg20
I00
sbsg38
(lp115
S'optionalPSet'
p116
ag102
asg116
g0
(g33
g2
Ntp117
Rp118
(dp119
g11
I00
sg19
I00
sg37
I01
sg20
I00
sbsbsg38
(lp120
g57
ag116
ag108
asg116
g0
(g33
g2
Ntp121
Rp122
(dp123
g11
I00
sg19
I00
sg37
I01
sg20
I00
sbsbsg60
g0
(g13
g14
(lp124
tp125
Rp126
(dp127
g11
I00
sg19
I00
sg20
I00
sg21
I1
sbsg63
g0
(g28
g2
Ntp128
Rp129
(dp130
g11
I00
sg19
I00
sg20
I00
sS'Root_NoDictionary'
p131
g0
(g28
g2
Ntp132
Rp133
(dp134
g11
I00
sg19
I00
sg20
I00
sg102
g0
(g103
g2
Ntp135
Rp136
(dp137
g11
I00
sg19
I00
sg37
I0
sg20
I00
sbsg38
(lp138
g116
ag102
asg116
g0
(g33
g2
Ntp139
Rp140
(dp141
g11
I00
sg19
I00
sg37
I01
sg20
I00
sbsbsg38
(lp142
g116
ag131
ag32
asg116
g0
(g33
g2
Ntp143
Rp144
(dp145
g11
I00
sg19
I00
sg37
I01
sg20
I00
sbsg32
g0
(g33
g2
Ntp146
Rp147
(dp148
g11
I00
sg19
I00
sg37
I01
sg20
I00
sbsbsg64
g0
(g13
g14
(lp149
g108
aS'FwkReport'
p150
aS'FwkSummary'
p151
ag131
atp152
Rp153
(dp154
g11
I00
sg19
I00
sg20
I00
sg21
I1
sbsg20
I00
sg55
g0
(g28
g2
Ntp155
Rp156
(dp157
g11
I00
sg19
I00
sg20
I00
sg116
g0
(g33
g2
Ntp158
Rp159
(dp160
g11
I00
sg19
I00
sg37
I01
sg20
I00
sbsg38
(lp161
S'threshold'
p162
aS'output'
p163
ag116
asg162
g0
(cFWCore.ParameterSet.Types
string
p164
g2
Ntp165
Rp166
(dp167
g11
I00
sg19
I00
sg37
S'WARNING'
p168
sg20
I00
sbsg163
g0
(g164
g2
Ntp169
Rp170
(dp171
g11
I00
sg19
I00
sg37
g59
sg20
I00
sbsbsg57
g0
(g28
g2
Ntp172
Rp173
(dp174
g11
I00
sg19
I00
sg20
I00
sg38
(lp175
sbsg59
g0
(g28
g2
Ntp176
Rp177
(dp178
g11
I00
sg19
I00
sS'noTimeStamps'
p179
g0
(g33
g2
Ntp180
Rp181
(dp182
g11
I00
sg19
I00
sg37
I00
sg20
I00
sbsg150
g0
(g28
g2
Ntp183
Rp184
(dp185
g11
I00
sg19
I00
sg20
I01
sS'reportEvery'
p186
g0
(g103
g2
Ntp187
Rp188
(dp189
g11
I00
sg19
I00
sg37
I1
sg20
I00
sbsg102
g0
(g103
g2
Ntp190
Rp191
(dp192
g11
I00
sg19
I00
sg37
I10000000
sg20
I00
sbsg38
(lp193
g186
ag116
ag102
asg116
g0
(g33
g2
Ntp194
Rp195
(dp196
g11
I00
sg19
I00
sg37
I01
sg20
I00
sbsbsg20
I00
sg57
g0
(g28
g2
Ntp197
Rp198
(dp199
g11
I00
sg19
I00
sg102
g0
(g103
g2
Ntp200
Rp201
(dp202
g11
I00
sg19
I00
sg37
I10000000
sg20
I00
sbsg20
I00
sg38
(lp203
g102
asbsg131
g0
(g28
g2
Ntp204
Rp205
(dp206
g11
I00
sg19
I00
sg20
I00
sg102
g0
(g103
g2
Ntp207
Rp208
(dp209
g11
I00
sg19
I00
sg37
I0
sg20
I00
sbsg38
(lp210
g116
ag102
asg116
g0
(g33
g2
Ntp211
Rp212
(dp213
g11
I00
sg19
I00
sg37
I01
sg20
I00
sbsbsS'INFO'
p214
g0
(g28
g2
Ntp215
Rp216
(dp217
g11
I00
sg19
I00
sg102
g0
(g103
g2
Ntp218
Rp219
(dp220
g11
I00
sg19
I00
sg37
I0
sg20
I00
sbsg20
I00
sg38
(lp221
g102
asbsg116
g0
(g33
g2
Ntp222
Rp223
(dp224
g11
I00
sg19
I00
sg37
I01
sg20
I00
sbsg108
g0
(g28
g2
Ntp225
Rp226
(dp227
g11
I00
sg19
I00
sg20
I00
sg102
g0
(g103
g2
Ntp228
Rp229
(dp230
g11
I00
sg19
I00
sg37
I0
sg20
I00
sbsg38
(lp231
g116
ag102
asg116
g0
(g33
g2
Ntp232
Rp233
(dp234
g11
I00
sg19
I00
sg37
I01
sg20
I00
sbsbsg151
g0
(g28
g2
Ntp235
Rp236
(dp237
g11
I00
sg19
I00
sg20
I00
sg186
g0
(g103
g2
Ntp238
Rp239
(dp240
g11
I00
sg19
I00
sg37
I1
sg20
I00
sbsg102
g0
(g103
g2
Ntp241
Rp242
(dp243
g11
I00
sg19
I00
sg37
I10000000
sg20
I00
sbsg38
(lp244
g186
ag116
ag102
asg116
g0
(g33
g2
Ntp245
Rp246
(dp247
g11
I00
sg19
I00
sg37
I01
sg20
I00
sbsbsg38
(lp248
g214
ag179
ag150
ag57
ag131
ag162
ag108
ag151
ag116
asg162
g0
(g164
g2
Ntp249
Rp250
(dp251
g11
I00
sg19
I00
sg37
g214
sg20
I00
sbsbsbsS'l1GtTriggerMaskTechTrig'
p252
g0
(cFWCore.ParameterSet.Modules
ESProducer
p253
g2
Ntp254
Rp255
(dp256
g38
(lp257
S'TriggerMask'
p258
asg11
I00
sg20
I00
sg40
I40
sg69
g70
sg258
g0
(cFWCore.ParameterSet.Types
vuint32
p259
g14
(lp260
I0
aI0
aI0
aI0
aI0
aI0
aI0
aI0
aI0
aI0
aI0
aI0
aI0
aI0
aI0
aI0
aI0
aI0
aI0
aI0
aI0
aI0
aI0
aI0
aI0
aI0
aI0
aI0
aI0
aI0
aI0
aI0
aI0
aI0
aI0
aI0
aI0
aI0
aI0
aI0
aI0
aI0
aI0
aI0
aI0
aI0
aI0
aI0
aI0
aI0
aI0
aI0
aI0
aI0
aI0
aI0
aI0
aI0
aI0
aI0
aI0
aI0
aI0
aI0
atp261
Rp262
(dp263
g11
I00
sg19
I01
sg20
I00
sbsS'_Labelable__label'
p264
g252
sg46
S'L1GtTriggerMaskTechTrigTrivialProducer'
p265
sbsS'_Process__sequences'
p266
(dp267
S'hfCoincFilter'
p268
g0
(cFWCore.ParameterSet.SequenceTypes
Sequence
p269
g2
Ntp270
Rp271
(dp272
g11
I00
sS'_seq'
p273
g0
(cFWCore.ParameterSet.SequenceTypes
_SequenceCollection
p274
g2
Ntp275
Rp276
(dp277
S'_collection'
p278
(lp279
g0
(cFWCore.ParameterSet.Modules
EDProducer
p280
g2
Ntp281
Rp282
(dp283
g38
(lp284
S'minimumE'
p285
aS'verbose'
p286
aS'minimumEt'
p287
aS'src'
p288
asg11
I00
sg286
g0
(g103
g2
Ntp289
Rp290
(dp291
g11
I00
sg19
I00
sg37
I0
sg20
I00
sbsg288
g0
(cFWCore.ParameterSet.Types
InputTag
p292
g2
Ntp293
Rp294
(dp295
g11
I00
sg19
I01
sg20
I00
sS'_InputTag__moduleLabel'
p296
S'towerMaker'
p297
sS'_InputTag__processName'
p298
S''
p299
sS'_InputTag__productInstance'
p300
g299
sbsg69
S'/cvmfs/cms.cern.ch/slc6_amd64_gcc491/cms/cmssw-patch/CMSSW_7_5_8_patch3/python/HeavyIonsAnalysis/Configuration/hfCoincFilter_cff.py'
p301
sg285
g0
(cFWCore.ParameterSet.Types
double
p302
g2
Ntp303
Rp304
(dp305
g11
I00
sg19
I01
sg37
F3.0
sg20
I00
sbsg40
I8
sg287
g0
(g302
g2
Ntp306
Rp307
(dp308
g11
I00
sg19
I01
sg37
F0.0
sg20
I00
sbsg264
S'towersAboveThreshold'
p309
sg46
S'CaloTowerCandidateCreator'
p310
sg20
I00
sbag0
(cFWCore.ParameterSet.Modules
EDFilter
p311
g2
Ntp312
Rp313
(dp314
g38
(lp315
g288
aS'etaMin'
p316
aS'etaMax'
p317
aS'ptMin'
p318
asg11
I00
sg20
I00
sg288
g0
(g292
g2
Ntp319
Rp320
(dp321
g11
I00
sg19
I01
sg20
I00
sg296
g309
sg298
g299
sg300
g299
sbsg69
g301
sg316
g0
(g302
g2
Ntp322
Rp323
(dp324
g11
I00
sg19
I01
sg37
F3.0
sg20
I00
sbsg40
I16
sg318
g0
(g302
g2
Ntp325
Rp326
(dp327
g11
I00
sg19
I01
sg37
I0
sg20
I00
sbsg264
S'hfPosTowers'
p328
sg317
g0
(g302
g2
Ntp329
Rp330
(dp331
g11
I00
sg19
I01
sg37
F6.0
sg20
I00
sbsg46
S'EtaPtMinCandSelector'
p332
sbag0
(g311
g2
Ntp333
Rp334
(dp335
g38
(lp336
g288
ag316
ag317
ag318
asg11
I00
sg20
I00
sg288
g0
(g292
g2
Ntp337
Rp338
(dp339
g11
I00
sg19
I01
sg20
I00
sg296
g309
sg298
g299
sg300
g299
sbsg69
g301
sg316
g0
(g302
g2
Ntp340
Rp341
(dp342
g11
I00
sg19
I01
sg37
F-6.0
sg20
I00
sbsg40
I24
sg318
g0
(g302
g2
Ntp343
Rp344
(dp345
g11
I00
sg19
I01
sg37
I0
sg20
I00
sbsg264
S'hfNegTowers'
p346
sg317
g0
(g302
g2
Ntp347
Rp348
(dp349
g11
I00
sg19
I01
sg37
F-3.0
sg20
I00
sbsg46
g332
sbag0
(g311
g2
Ntp350
Rp351
(dp352
g38
(lp353
g288
aS'minNumber'
p354
asg11
I00
sg20
I00
sg354
g0
(cFWCore.ParameterSet.Types
uint32
p355
g2
Ntp356
Rp357
(dp358
g11
I00
sg19
I01
sg37
I1
sg20
I00
sbsg288
g0
(g292
g2
Ntp359
Rp360
(dp361
g11
I00
sg19
I01
sg20
I00
sg296
g328
sg298
g299
sg300
g299
sbsg69
g301
sg40
I30
sg264
S'hfPosFilter'
p362
sg46
S'CandCountFilter'
p363
sbag0
(g311
g2
Ntp364
Rp365
(dp366
g38
(lp367
g288
ag354
asg11
I00
sg20
I00
sg354
g0
(g355
g2
Ntp368
Rp369
(dp370
g11
I00
sg19
I01
sg37
I1
sg20
I00
sbsg288
g0
(g292
g2
Ntp371
Rp372
(dp373
g11
I00
sg19
I01
sg20
I00
sg296
g346
sg298
g299
sg300
g299
sbsg69
g301
sg40
I36
sg264
S'hfNegFilter'
p374
sg46
g363
sbasbsg20
I00
sg264
g268
sbsS'collisionEventSelection'
p375
g0
(g269
g2
Ntp376
Rp377
(dp378
g11
I00
sg273
g0
(g274
g2
Ntp379
Rp380
(dp381
g278
(lp382
g0
(g311
g2
Ntp383
Rp384
(dp385
g38
(lp386
S'L1SeedsLogicalExpression'
p387
aS'saveTags'
p388
aS'L1MuonCollectionTag'
p389
aS'L1UseL1TriggerObjectMaps'
p390
aS'L1UseAliasesForSeeding'
p391
aS'L1GtReadoutRecordTag'
p392
aS'L1CollectionsTag'
p393
aS'L1NrBxInEvent'
p394
aS'L1GtObjectMapTag'
p395
aS'L1TechTriggerSeeding'
p396
asg11
I00
sg20
I00
sg388
g0
(g33
g2
Ntp397
Rp398
(dp399
g11
I00
sg19
I01
sg37
I00
sg20
I00
sbsg387
g0
(g164
g2
Ntp400
Rp401
(dp402
g11
I00
sg19
I01
sg37
S'NOT (36 OR 37 OR 38 OR 39)'
p403
sg20
I00
sbsg69
S'/cvmfs/cms.cern.ch/slc6_amd64_gcc491/cms/cmssw-patch/CMSSW_7_5_8_patch3/python/HeavyIonsAnalysis/Configuration/collisionEventSelection_cff.py'
p404
sg389
g0
(g292
g2
Ntp405
Rp406
(dp407
g11
I00
sg19
I01
sg20
I00
sg296
S'l1extraParticles'
p408
sg300
g299
sg298
g299
sbsg390
g0
(g33
g2
Ntp409
Rp410
(dp411
g11
I00
sg19
I01
sg37
I01
sg20
I00
sbsg391
g0
(g33
g2
Ntp412
Rp413
(dp414
g11
I00
sg19
I01
sg37
I01
sg20
I00
sbsg392
g0
(g292
g2
Ntp415
Rp416
(dp417
g11
I00
sg19
I01
sg20
I00
sg296
S'gtDigis'
p418
sg300
g299
sg298
g299
sbsg40
I23
sg393
g0
(g292
g2
Ntp419
Rp420
(dp421
g11
I00
sg19
I01
sg20
I00
sg296
g408
sg300
g299
sg298
g299
sbsg394
g0
(g103
g2
Ntp422
Rp423
(dp424
g11
I00
sg19
I01
sg37
I3
sg20
I00
sbsg264
S'noBSChalo'
p425
sg395
g0
(g292
g2
Ntp426
Rp427
(dp428
g11
I00
sg19
I01
sg20
I00
sg296
S'l1GtObjectMap'
p429
sg300
g299
sg298
g299
sbsg396
g0
(g33
g2
Ntp430
Rp431
(dp432
g11
I00
sg19
I01
sg37
I01
sg20
I00
sbsg46
S'HLTLevel1GTSeed'
p433
sbag0
(g269
g2
Ntp434
Rp435
(dp436
g11
I00
sg273
g0
(g274
g2
Ntp437
Rp438
(dp439
g278
(lp440
g282
ag313
ag334
ag0
(g311
g2
Ntp441
Rp442
(dp443
g38
(lp444
g288
ag354
asg11
I00
sg20
I00
sg354
g0
(g355
g2
Ntp445
Rp446
(dp447
g11
I00
sg19
I01
sg37
I3
sg20
I00
sbsg288
g0
(g292
g2
Ntp448
Rp449
(dp450
g11
I00
sg19
I01
sg20
I00
sg296
g328
sg300
g299
sg298
g299
sbsg69
g301
sg40
I50
sg264
S'hfPosFilter3'
p451
sg46
g363
sbag0
(g311
g2
Ntp452
Rp453
(dp454
g38
(lp455
g288
ag354
asg11
I00
sg20
I00
sg354
g0
(g355
g2
Ntp456
Rp457
(dp458
g11
I00
sg19
I01
sg37
I3
sg20
I00
sbsg288
g0
(g292
g2
Ntp459
Rp460
(dp461
g11
I00
sg19
I01
sg20
I00
sg296
g346
sg300
g299
sg298
g299
sbsg69
g301
sg40
I51
sg264
S'hfNegFilter3'
p462
sg46
g363
sbasbsg20
I00
sg264
S'hfCoincFilter3'
p463
sbag0
(g311
g2
Ntp464
Rp465
(dp466
g38
(lp467
S'filter'
p468
ag288
aS'cut'
p469
asg11
I00
sg469
g0
(g164
g2
Ntp470
Rp471
(dp472
g11
I00
sg19
I01
sg37
S'!isFake && abs(z) <= 25 && position.Rho <= 2 && tracksSize >= 2'
p473
sg20
I00
sbsg20
I00
sg288
g0
(g292
g2
Ntp474
Rp475
(dp476
g11
I00
sg19
I01
sg20
I00
sg296
S'hiSelectedVertex'
p477
sg298
g299
sg300
g299
sbsg69
g404
sg468
g0
(g33
g2
Ntp478
Rp479
(dp480
g11
I00
sg19
I01
sg37
I01
sg20
I00
sbsg40
I10
sg264
S'primaryVertexFilter'
p481
sg46
S'VertexSelector'
p482
sbag0
(g280
g2
Ntp483
Rp484
(dp485
g38
(lp486
S'VerboseLevel'
p487
ag288
aS'CPE'
p488
asg11
I00
sg20
I00
sg288
g0
(g292
g2
Ntp489
Rp490
(dp491
g11
I00
sg19
I01
sg20
I00
sg296
S'siPixelClusters'
p492
sg298
g299
sg300
g299
sbsg69
S'/cvmfs/cms.cern.ch/slc6_amd64_gcc491/cms/cmssw-patch/CMSSW_7_5_8_patch3/python/RecoLocalTracker/SiPixelRecHits/SiPixelRecHits_cfi.py'
p493
sg488
g0
(g164
g2
Ntp494
Rp495
(dp496
g11
I00
sg19
I01
sg37
S'PixelCPEGeneric'
p497
sg20
I00
sbsg487
g0
(g103
g2
Ntp498
Rp499
(dp500
g11
I00
sg19
I00
sg37
I0
sg20
I00
sbsg40
I6
sg264
S'siPixelRecHits'
p501
sg46
S'SiPixelRecHitConverter'
p502
sbag0
(g311
g2
Ntp503
Rp504
(dp505
g38
(lp506
S'maxZ'
p507
ag388
aS'inputTag'
p508
aS'clusterTrunc'
p509
aS'zStep'
p510
aS'minZ'
p511
aS'nhitsTrunc'
p512
aS'clusterPars'
p513
asg11
I00
sg507
g0
(g302
g2
Ntp514
Rp515
(dp516
g11
I00
sg19
I01
sg37
F20.05
sg20
I00
sbsg20
I01
sg388
g0
(g33
g2
Ntp517
Rp518
(dp519
g11
I00
sg19
I01
sg37
I00
sg20
I00
sbsg40
I14
sg509
g0
(g302
g2
Ntp520
Rp521
(dp522
g11
I00
sg19
I01
sg37
I2
sg20
I00
sbsg508
g0
(g292
g2
Ntp523
Rp524
(dp525
g11
I00
sg19
I01
sg20
I01
sg296
g501
sg298
g299
sg300
g299
sbsg510
g0
(g302
g2
Ntp526
Rp527
(dp528
g11
I00
sg19
I01
sg37
F0.2
sg20
I00
sbsg511
g0
(g302
g2
Ntp529
Rp530
(dp531
g11
I00
sg19
I01
sg37
I-20
sg20
I00
sbsg264
S'hltPixelClusterShapeFilter'
p532
sg69
S'/cvmfs/cms.cern.ch/slc6_amd64_gcc491/cms/cmssw-patch/CMSSW_7_5_8_patch3/cfipython/slc6_amd64_gcc491/HLTrigger/special/hltPixelClusterShapeFilter_cfi.py'
p533
sg512
g0
(g103
g2
Ntp534
Rp535
(dp536
g11
I00
sg19
I01
sg37
I150
sg20
I00
sbsg513
g0
(cFWCore.ParameterSet.Types
vdouble
p537
g14
(lp538
I0
aF0.0045
atp539
Rp540
(dp541
g11
I00
sg19
I01
sg20
I00
sbsg46
S'HLTPixelClusterShapeFilter'
p542
sbasbsg20
I00
sg264
g375
sbsg463
g435
ssS'CondDBSetup'
p543
g0
(g28
g2
Ntp544
Rp545
(dp546
g11
I00
sg19
I01
sg20
I00
sS'DBParameters'
p547
g0
(g28
g2
Ntp548
Rp549
(dp550
g11
I00
sg19
I01
sS'connectionRetrialPeriod'
p551
g0
(g103
g2
Ntp552
Rp553
(dp554
g11
I00
sg19
I00
sg37
I10
sg20
I00
sbsS'authenticationPath'
p555
g0
(g164
g2
Ntp556
Rp557
(dp558
g11
I00
sg19
I00
sg37
g299
sg20
I00
sbsg20
I00
sS'idleConnectionCleanupPeriod'
p559
g0
(g103
g2
Ntp560
Rp561
(dp562
g11
I00
sg19
I00
sg37
I10
sg20
I00
sbsS'messageLevel'
p563
g0
(g103
g2
Ntp564
Rp565
(dp566
g11
I00
sg19
I00
sg37
I0
sg20
I00
sbsS'enablePoolAutomaticCleanUp'
p567
g0
(g33
g2
Ntp568
Rp569
(dp570
g11
I00
sg19
I00
sg37
I00
sg20
I00
sbsS'enableConnectionSharing'
p571
g0
(g33
g2
Ntp572
Rp573
(dp574
g11
I00
sg19
I00
sg37
I01
sg20
I00
sbsS'enableReadOnlySessionOnUpdateConnection'
p575
g0
(g33
g2
Ntp576
Rp577
(dp578
g11
I00
sg19
I00
sg37
I00
sg20
I00
sbsg38
(lp579
g555
ag575
ag559
ag563
ag567
ag571
aS'connectionRetrialTimeOut'
p580
aS'connectionTimeOut'
p581
aS'authenticationSystem'
p582
ag551
asg581
g0
(g103
g2
Ntp583
Rp584
(dp585
g11
I00
sg19
I00
sg37
I60
sg20
I00
sbsg582
g0
(g103
g2
Ntp586
Rp587
(dp588
g11
I00
sg19
I00
sg37
I0
sg20
I00
sbsg580
g0
(g103
g2
Ntp589
Rp590
(dp591
g11
I00
sg19
I00
sg37
I60
sg20
I00
sbsbsg38
(lp592
g547
asg264
g543
sbsg532
g504
sS'_Process__services'
p593
(dp594
g6
g9
sS'TFileService'
p595
g0
(g7
g2
Ntp596
Rp597
(dp598
g38
(lp599
S'fileName'
p600
asg11
I00
sg20
I00
sg40
I10
sg69
g70
sg600
g0
(g164
g2
Ntp601
Rp602
(dp603
g11
I00
sg19
I01
sg37
S'/afs/cern.ch/user/m/mguilbau/ForPrabhat/CMSSW_7_5_8_patch3/src/Analyzers/ChargeDepAndPtCorr/test/chargeptdepcorr.root'
p604
sg20
I00
sbsg46
g595
sbssS'siStripQualityESProducer'
p605
g0
(g253
g2
Ntp606
Rp607
(dp608
g38
(lp609
S'appendToDataLabel'
p610
aS'PrintDebugOutput'
p611
aS'ThresholdForReducedGranularity'
p612
aS'UseEmptyRunInfo'
p613
aS'ReduceGranularity'
p614
aS'ListOfRecordToMerge'
p615
asg11
I00
sg610
g0
(g164
g2
Ntp616
Rp617
(dp618
g11
I00
sg19
I01
sg37
g299
sg20
I00
sbsg20
I01
sg40
I40
sg69
g70
sg612
g0
(g302
g2
Ntp619
Rp620
(dp621
g11
I00
sg19
I01
sg37
F0.3
sg20
I00
sbsg264
g605
sg613
g0
(g33
g2
Ntp622
Rp623
(dp624
g11
I00
sg19
I01
sg37
I00
sg20
I00
sbsg614
g0
(g33
g2
Ntp625
Rp626
(dp627
g11
I00
sg19
I01
sg37
I00
sg20
I00
sbsg615
g0
(cFWCore.ParameterSet.Types
VPSet
p628
g14
(lp629
g0
(g28
g2
Ntp630
Rp631
(dp632
g11
I00
sg19
I01
sg20
I00
sS'record'
p633
g0
(g164
g2
Ntp634
Rp635
(dp636
g11
I00
sg19
I01
sg37
S'SiStripDetVOffRcd'
p637
sg20
I00
sbsS'tag'
p638
g0
(g164
g2
Ntp639
Rp640
(dp641
g11
I00
sg19
I01
sg37
g299
sg20
I00
sbsg38
(lp642
g633
ag638
asbag0
(g28
g2
Ntp643
Rp644
(dp645
g11
I00
sg19
I01
sg20
I00
sg633
g0
(g164
g2
Ntp646
Rp647
(dp648
g11
I00
sg19
I01
sg37
S'SiStripDetCablingRcd'
p649
sg20
I00
sbsg638
g0
(g164
g2
Ntp650
Rp651
(dp652
g11
I00
sg19
I01
sg37
g299
sg20
I00
sbsg38
(lp653
g633
ag638
asbag0
(g28
g2
Ntp654
Rp655
(dp656
g11
I00
sg19
I01
sg20
I00
sg633
g0
(g164
g2
Ntp657
Rp658
(dp659
g11
I00
sg19
I01
sg37
S'RunInfoRcd'
p660
sg20
I00
sbsg638
g0
(g164
g2
Ntp661
Rp662
(dp663
g11
I00
sg19
I01
sg37
g299
sg20
I00
sbsg38
(lp664
g633
ag638
asbag0
(g28
g2
Ntp665
Rp666
(dp667
g11
I00
sg19
I01
sg20
I00
sg633
g0
(g164
g2
Ntp668
Rp669
(dp670
g11
I00
sg19
I01
sg37
S'SiStripBadChannelRcd'
p671
sg20
I00
sbsg638
g0
(g164
g2
Ntp672
Rp673
(dp674
g11
I00
sg19
I01
sg37
g299
sg20
I00
sbsg38
(lp675
g633
ag638
asbag0
(g28
g2
Ntp676
Rp677
(dp678
g11
I00
sg19
I01
sg20
I00
sg633
g0
(g164
g2
Ntp679
Rp680
(dp681
g11
I00
sg19
I01
sg37
S'SiStripBadFiberRcd'
p682
sg20
I00
sbsg638
g0
(g164
g2
Ntp683
Rp684
(dp685
g11
I00
sg19
I01
sg37
g299
sg20
I00
sbsg38
(lp686
g633
ag638
asbag0
(g28
g2
Ntp687
Rp688
(dp689
g11
I00
sg19
I01
sg20
I00
sg633
g0
(g164
g2
Ntp690
Rp691
(dp692
g11
I00
sg19
I01
sg37
S'SiStripBadModuleRcd'
p693
sg20
I00
sbsg638
g0
(g164
g2
Ntp694
Rp695
(dp696
g11
I00
sg19
I01
sg37
g299
sg20
I00
sbsg38
(lp697
g633
ag638
asbag0
(g28
g2
Ntp698
Rp699
(dp700
g11
I00
sg19
I01
sg20
I00
sg633
g0
(g164
g2
Ntp701
Rp702
(dp703
g11
I00
sg19
I01
sg37
S'SiStripBadStripRcd'
p704
sg20
I00
sbsg638
g0
(g164
g2
Ntp705
Rp706
(dp707
g11
I00
sg19
I01
sg37
g299
sg20
I00
sbsg38
(lp708
g633
ag638
asbatp709
Rp710
(dp711
g11
I00
sg19
I01
sg20
I00
sg21
I1
sbsg46
S'SiStripQualityESProducer'
p712
sg611
g0
(g33
g2
Ntp713
Rp714
(dp715
g11
I00
sg19
I01
sg37
I00
sg20
I00
sbsbsS'_Process__source'
p716
g0
(cFWCore.ParameterSet.Modules
Source
p717
g2
Ntp718
Rp719
(dp720
g38
(lp721
S'fileNames'
p722
asg11
I00
sg20
I00
sg40
I175
sg69
g70
sg722
g0
(g13
g14
(lp723
S'root://cms-xrd-global.cern.ch//store/hidata/HIRun2015/HIMinimumBias2/AOD/25Aug2016-v1/90000/34CD034C-ED6F-E611-A55F-44A842124E15.root'
p724
atp725
Rp726
(dp727
g11
I00
sg19
I00
sg20
I00
sg21
I1
sbsg46
S'PoolSource'
p728
sbsS'StripCPEfromTrackAngleESProducer'
p729
g0
(g253
g2
Ntp730
Rp731
(dp732
g38
(lp733
S'ComponentType'
p734
aS'ComponentName'
p735
aS'parameters'
p736
asg11
I00
sg20
I01
sg736
g0
(g28
g2
Ntp737
Rp738
(dp739
g11
I00
sg19
I01
sS'maxChgOneMIP'
p740
g0
(g302
g2
Ntp741
Rp742
(dp743
g11
I00
sg19
I01
sg37
F6000.0
sg20
I00
sbsS'mLC_P2'
p744
g0
(g302
g2
Ntp745
Rp746
(dp747
g11
I00
sg19
I01
sg37
F0.3
sg20
I00
sbsS'mLC_P1'
p748
g0
(g302
g2
Ntp749
Rp750
(dp751
g11
I00
sg19
I01
sg37
F0.618
sg20
I00
sbsS'mLC_P0'
p752
g0
(g302
g2
Ntp753
Rp754
(dp755
g11
I00
sg19
I01
sg37
F-0.326
sg20
I00
sbsS'useLegacyError'
p756
g0
(g33
g2
Ntp757
Rp758
(dp759
g11
I00
sg19
I01
sg37
I00
sg20
I00
sbsS'mTIB_P1'
p760
g0
(g302
g2
Ntp761
Rp762
(dp763
g11
I00
sg19
I01
sg37
F0.202
sg20
I00
sbsS'mTEC_P1'
p764
g0
(g302
g2
Ntp765
Rp766
(dp767
g11
I00
sg19
I01
sg37
F0.471
sg20
I00
sbsS'mTEC_P0'
p768
g0
(g302
g2
Ntp769
Rp770
(dp771
g11
I00
sg19
I01
sg37
F-1.885
sg20
I00
sbsS'mTOB_P0'
p772
g0
(g302
g2
Ntp773
Rp774
(dp775
g11
I00
sg19
I01
sg37
F-1.026
sg20
I00
sbsS'mTOB_P1'
p776
g0
(g302
g2
Ntp777
Rp778
(dp779
g11
I00
sg19
I01
sg37
F0.253
sg20
I00
sbsS'mTIB_P0'
p780
g0
(g302
g2
Ntp781
Rp782
(dp783
g11
I00
sg19
I01
sg37
F-0.742
sg20
I00
sbsg38
(lp784
g740
ag744
ag748
ag752
ag756
ag764
ag768
ag772
ag776
ag780
ag760
aS'mTID_P0'
p785
aS'mTID_P1'
p786
asg785
g0
(g302
g2
Ntp787
Rp788
(dp789
g11
I00
sg19
I01
sg37
F-1.427
sg20
I00
sbsg786
g0
(g302
g2
Ntp790
Rp791
(dp792
g11
I00
sg19
I01
sg37
F0.433
sg20
I00
sbsg20
I00
sbsg40
I4
sg735
g0
(g164
g2
Ntp793
Rp794
(dp795
g11
I00
sg19
I01
sg37
S'StripCPEfromTrackAngle'
p796
sg20
I00
sbsg734
g0
(g164
g2
Ntp797
Rp798
(dp799
g11
I00
sg19
I01
sg37
g796
sg20
I00
sbsg69
S'/cvmfs/cms.cern.ch/slc6_amd64_gcc491/cms/cmssw-patch/CMSSW_7_5_8_patch3/python/RecoLocalTracker/SiStripRecHitConverter/StripCPEfromTrackAngle_cfi.py'
p800
sg264
g729
sg46
S'StripCPEESProducer'
p801
sbsS'_Process__aliases'
p802
(dp803
sS'hltHighLevel'
p804
g0
(g311
g2
Ntp805
Rp806
(dp807
g38
(lp808
S'eventSetupPathsKey'
p809
aS'TriggerResultsTag'
p810
aS'HLTPaths'
p811
aS'throw'
p812
aS'andOr'
p813
asg11
I00
sg813
g0
(g33
g2
Ntp814
Rp815
(dp816
g11
I00
sg19
I01
sg37
I01
sg20
I00
sbsg811
g0
(g13
g14
(lp817
tp818
Rp819
(dp820
g11
I00
sg19
I01
sg20
I00
sg21
I1
sbsg20
I00
sg40
I8
sg69
S'/cvmfs/cms.cern.ch/slc6_amd64_gcc491/cms/cmssw-patch/CMSSW_7_5_8_patch3/cfipython/slc6_amd64_gcc491/HLTrigger/HLTfilters/hltHighLevel_cfi.py'
p821
sg264
g804
sg809
g0
(g164
g2
Ntp822
Rp823
(dp824
g11
I00
sg19
I01
sg37
g299
sg20
I00
sbsg812
g0
(g33
g2
Ntp825
Rp826
(dp827
g11
I00
sg19
I01
sg37
I01
sg20
I00
sbsg46
S'HLTHighLevel'
p828
sg810
g0
(g292
g2
Ntp829
Rp830
(dp831
g11
I00
sg19
I01
sg20
I00
sg296
S'TriggerResults'
p832
sg298
S'HLT'
p833
sg300
g299
sbsbsS'siPixelRecHitsPreSplitting'
p834
g0
(g280
g2
Ntp835
Rp836
(dp837
g38
(lp838
g487
ag288
ag488
asg11
I00
sg20
I00
sg288
g0
(g292
g2
Ntp839
Rp840
(dp841
g11
I00
sg19
I01
sg20
I01
sg296
S'siPixelClustersPreSplitting'
p842
sg300
g299
sg298
g299
sbsg69
g493
sg488
g0
(g164
g2
Ntp843
Rp844
(dp845
g11
I00
sg19
I01
sg37
g497
sg20
I00
sbsg487
g0
(g103
g2
Ntp846
Rp847
(dp848
g11
I00
sg19
I00
sg37
I0
sg20
I00
sbsg40
I11
sg264
g834
sg46
g502
sbsg309
g282
sg374
g365
sg425
g384
sg375
g377
sg268
g271
sg451
g442
sg328
g313
sS'stripCPEESProducer'
p849
g0
(g253
g2
Ntp850
Rp851
(dp852
g38
(lp853
g734
ag735
ag736
asg11
I00
sg20
I00
sg736
g0
(g28
g2
Ntp854
Rp855
(dp856
g11
I00
sg19
I01
sg20
I00
sg38
(lp857
sbsg40
I40
sg735
g0
(g164
g2
Ntp858
Rp859
(dp860
g11
I00
sg19
I01
sg37
S'stripCPE'
p861
sg20
I00
sbsg734
g0
(g164
g2
Ntp862
Rp863
(dp864
g11
I00
sg19
I01
sg37
S'SimpleStripCPE'
p865
sg20
I00
sbsg69
g70
sg264
g849
sg46
g801
sbsS'EcalLaserCorrectionService'
p866
g0
(g253
g2
Ntp867
Rp868
(dp869
g38
(lp870
sg11
I00
sg20
I00
sg40
I40
sg69
g70
sg264
g866
sg46
g866
sbsS'_Process__psets'
p871
(dp872
S'maxEvents'
p873
g0
(g28
g2
Ntp874
Rp875
(dp876
g11
I00
sg19
I00
sg20
I00
sg38
(lp877
S'input'
p878
asg264
g873
sg878
g0
(g103
g2
Ntp879
Rp880
(dp881
g11
I00
sg19
I00
sg37
I10
sg20
I00
sbsbsS'HcalReLabel'
p882
g0
(g28
g2
Ntp883
Rp884
(dp885
g11
I00
sg19
I01
sg20
I00
sS'RelabelRules'
p886
g0
(g28
g2
Ntp887
Rp888
(dp889
g11
I00
sg19
I00
sg20
I00
sS'Eta16'
p890
g0
(cFWCore.ParameterSet.Types
vint32
p891
g14
(lp892
I1
aI1
aI2
aI2
aI2
aI2
aI2
aI2
aI2
aI3
aI3
aI3
aI3
aI3
aI3
aI3
aI3
aI3
aI3
atp893
Rp894
(dp895
g11
I00
sg19
I00
sg20
I00
sbsS'Eta17'
p896
g0
(g891
g14
(lp897
I1
aI1
aI2
aI2
aI3
aI3
aI3
aI4
aI4
aI4
aI4
aI4
aI5
aI5
aI5
aI5
aI5
aI5
aI5
atp898
Rp899
(dp900
g11
I00
sg19
I00
sg20
I00
sbsS'CorrectPhi'
p901
g0
(g33
g2
Ntp902
Rp903
(dp904
g11
I00
sg19
I00
sg37
I00
sg20
I00
sbsg38
(lp905
g890
ag896
aS'Eta1'
p906
ag901
asg906
g0
(g891
g14
(lp907
I1
aI2
aI2
aI2
aI3
aI3
aI3
aI3
aI3
aI3
aI3
aI3
aI3
aI3
aI3
aI3
aI3
aI3
aI3
atp908
Rp909
(dp910
g11
I00
sg19
I00
sg20
I00
sbsbsg38
(lp911
g886
aS'RelabelHits'
p912
asg264
g882
sg912
g0
(g33
g2
Ntp913
Rp914
(dp915
g11
I00
sg19
I00
sg37
I00
sg20
I00
sbsbsg543
g545
ssS'hcal_db_producer'
p916
g0
(g253
g2
Ntp917
Rp918
(dp919
g38
(lp920
S'file'
p921
aS'dump'
p922
asg11
I00
sg20
I00
sg922
g0
(g13
g14
(lp923
g299
atp924
Rp925
(dp926
g11
I00
sg19
I00
sg20
I00
sg21
I1
sbsg40
I40
sg69
g70
sg921
g0
(g164
g2
Ntp927
Rp928
(dp929
g11
I00
sg19
I00
sg37
g299
sg20
I00
sbsg264
g916
sg46
S'HcalDbProducer'
p930
sbsg595
g597
sg481
g465
sS'_Process__essources'
p931
(dp932
S'es_hardcode'
p933
g0
(cFWCore.ParameterSet.Modules
ESSource
p934
g2
Ntp935
Rp936
(dp937
g38
(lp938
g882
aS'HERecalibration'
p939
aS'toGet'
p940
aS'GainWidthsForTrigPrims'
p941
aS'HEreCalibCutoff'
p942
aS'HFRecalibration'
p943
aS'iLumi'
p944
aS'hcalTopologyConstants'
p945
asg11
I00
sg882
g884
sg20
I01
sg40
I19
sg939
g0
(g33
g2
Ntp946
Rp947
(dp948
g11
I00
sg19
I01
sg37
I00
sg20
I00
sbsg945
g0
(g28
g2
Ntp949
Rp950
(dp951
g11
I00
sg19
I01
sg20
I00
sS'maxDepthHE'
p952
g0
(g103
g2
Ntp953
Rp954
(dp955
g11
I00
sg19
I01
sg37
I3
sg20
I00
sbsS'maxDepthHB'
p956
g0
(g103
g2
Ntp957
Rp958
(dp959
g11
I00
sg19
I01
sg37
I2
sg20
I00
sbsg38
(lp960
g952
ag956
aS'mode'
p961
asg961
g0
(g164
g2
Ntp962
Rp963
(dp964
g11
I00
sg19
I01
sg37
S'HcalTopologyMode::LHC'
p965
sg20
I00
sbsbsg940
g0
(g13
g14
(lp966
S'GainWidths'
p967
atp968
Rp969
(dp970
g11
I00
sg19
I00
sg20
I00
sg21
I1
sbsg941
g0
(g33
g2
Ntp971
Rp972
(dp973
g11
I00
sg19
I01
sg37
I00
sg20
I00
sbsg942
g0
(g302
g2
Ntp974
Rp975
(dp976
g11
I00
sg19
I01
sg37
F20.0
sg20
I00
sbsg943
g0
(g33
g2
Ntp977
Rp978
(dp979
g11
I00
sg19
I01
sg37
I00
sg20
I00
sbsg69
S'/cvmfs/cms.cern.ch/slc6_amd64_gcc491/cms/cmssw-patch/CMSSW_7_5_8_patch3/python/CalibCalorimetry/HcalPlugins/Hcal_Conditions_forGlobalTag_cff.py'
p980
sg264
g933
sg944
g0
(g302
g2
Ntp981
Rp982
(dp983
g11
I00
sg19
I01
sg37
F-1.0
sg20
I00
sbsg46
S'HcalHardcodeCalibrations'
p984
sbsS'L1GtTriggerMaskTechTrigRcdSource'
p985
g0
(g934
g2
Ntp986
Rp987
(dp988
g38
(lp989
S'iovIsRunNotTime'
p990
aS'recordName'
p991
aS'firstValid'
p992
asg11
I00
sg20
I00
sg40
I8
sg991
g0
(g164
g2
Ntp993
Rp994
(dp995
g11
I00
sg19
I01
sg37
S'L1GtTriggerMaskTechTrigRcd'
p996
sg20
I00
sbsg69
S'/cvmfs/cms.cern.ch/slc6_amd64_gcc491/cms/cmssw-patch/CMSSW_7_5_8_patch3/python/L1TriggerConfig/L1GtConfigProducers/L1GtTriggerMaskTechTrigConfig_cff.py'
p997
sg992
g0
(g259
g14
(lp998
I1
atp999
Rp1000
(dp1001
g11
I00
sg19
I01
sg20
I00
sbsg264
g985
sg990
g0
(g33
g2
Ntp1002
Rp1003
(dp1004
g11
I00
sg19
I01
sg37
I01
sg20
I00
sbsg46
S'EmptyESSource'
p1005
sbsS'GlobalTag'
p1006
g0
(g934
g2
Ntp1007
Rp1008
(dp1009
g38
(lp1010
g547
ag940
aS'connect'
p1011
aS'globaltag'
p1012
asg11
I00
sg20
I01
sg1012
g0
(g164
g2
Ntp1013
Rp1014
(dp1015
g11
I00
sg19
I01
sg37
S'75X_dataRun2_v13'
p1016
sg20
I00
sbsg40
I11
sg69
S'/cvmfs/cms.cern.ch/slc6_amd64_gcc491/cms/cmssw-patch/CMSSW_7_5_8_patch3/python/Configuration/StandardSequences/FrontierConditions_GlobalTag_cfi.py'
p1017
sg940
g0
(g628
g14
(lp1018
tp1019
Rp1020
(dp1021
g11
I00
sg19
I01
sg20
I00
sg21
I1
sbsg547
g0
(g28
g2
Ntp1022
Rp1023
(dp1024
g11
I00
sg19
I01
sg555
g0
(g164
g2
Ntp1025
Rp1026
(dp1027
g11
I00
sg19
I00
sg37
g299
sg20
I00
sbsg551
g0
(g103
g2
Ntp1028
Rp1029
(dp1030
g11
I00
sg19
I00
sg37
I10
sg20
I00
sbsg20
I00
sg559
g0
(g103
g2
Ntp1031
Rp1032
(dp1033
g11
I00
sg19
I00
sg37
I10
sg20
I00
sbsg563
g0
(g103
g2
Ntp1034
Rp1035
(dp1036
g11
I00
sg19
I00
sg37
I0
sg20
I00
sbsg567
g0
(g33
g2
Ntp1037
Rp1038
(dp1039
g11
I00
sg19
I00
sg37
I00
sg20
I00
sbsg571
g0
(g33
g2
Ntp1040
Rp1041
(dp1042
g11
I00
sg19
I00
sg37
I01
sg20
I00
sbsg575
g0
(g33
g2
Ntp1043
Rp1044
(dp1045
g11
I00
sg19
I00
sg37
I00
sg20
I00
sbsg38
(lp1046
g555
ag575
ag559
ag563
ag567
ag571
ag580
ag581
ag582
ag551
asg581
g0
(g103
g2
Ntp1047
Rp1048
(dp1049
g11
I00
sg19
I00
sg37
I60
sg20
I00
sbsg582
g0
(g103
g2
Ntp1050
Rp1051
(dp1052
g11
I00
sg19
I00
sg37
I0
sg20
I00
sbsg580
g0
(g103
g2
Ntp1053
Rp1054
(dp1055
g11
I00
sg19
I00
sg37
I60
sg20
I00
sbsbsg1011
g0
(g164
g2
Ntp1056
Rp1057
(dp1058
g11
I00
sg19
I01
sg37
S'frontier://FrontierProd/CMS_CONDITIONS'
p1059
sg20
I00
sbsg264
g1006
sg46
S'PoolDBESSource'
p1060
sbssg728
g719
sS'clusterCompatibilityFilter'
p1061
g0
(g311
g2
Ntp1062
Rp1063
(dp1064
g38
(lp1065
g507
ag509
ag511
aS'cluscomSrc'
p1066
ag512
ag513
asg11
I00
sg507
g0
(g302
g2
Ntp1067
Rp1068
(dp1069
g11
I00
sg19
I01
sg37
F20.05
sg20
I00
sbsg20
I01
sg40
I9
sg69
S'/afs/cern.ch/user/m/mguilbau/ForPrabhat/CMSSW_7_5_8_patch3/python/HeavyIonsAnalysis/EventAnalysis/HIClusterCompatibilityFilter_cfi.py'
p1070
sg509
g0
(g302
g2
Ntp1071
Rp1072
(dp1073
g11
I00
sg19
I01
sg37
F2.0
sg20
I00
sbsg264
g1061
sg511
g0
(g302
g2
Ntp1074
Rp1075
(dp1076
g11
I00
sg19
I01
sg37
F-20.0
sg20
I00
sbsg1066
g0
(g292
g2
Ntp1077
Rp1078
(dp1079
g11
I00
sg19
I01
sg20
I00
sg296
S'hiClusterCompatibility'
p1080
sg298
g299
sg300
g299
sbsg512
g0
(g103
g2
Ntp1081
Rp1082
(dp1083
g11
I00
sg19
I01
sg37
I150
sg20
I00
sbsg513
g0
(g537
g14
(lp1084
F0.0
aF0.006
atp1085
Rp1086
(dp1087
g11
I00
sg19
I01
sg20
I00
sbsg46
S'HIClusterCompatibilityFilter'
p1088
sbsg873
g875
sS'source'
p1089
g719
sS'CastorDbProducer'
p1090
g0
(g253
g2
Ntp1091
Rp1092
(dp1093
g38
(lp1094
sg11
I00
sg20
I00
sg40
I40
sg69
g70
sg264
g1090
sg46
g1090
sbsS'_Process__vpsets'
p1095
(dp1096
sS'_Process__name'
p1097
S'ChargeDepAndPtCorr'
p1098
sg933
g936
sS'es_prefer_hcalHardcode'
p1099
g0
(cFWCore.ParameterSet.Modules
ESPrefer
p1100
g2
Ntp1101
Rp1102
(dp1103
g38
(lp1104
sg11
I00
sg20
I00
sS'_targetLabel'
p1105
g933
sg40
I73
sg69
g70
sg264
g1099
sg46
g984
sbsS'newCentralityBin'
p1106
g0
(g280
g2
Ntp1107
Rp1108
(dp1109
g38
(lp1110
S'nonDefaultGlauberModel'
p1111
aS'centralityVariable'
p1112
aS'pPbRunFlip'
p1113
aS'Centrality'
p1114
asg11
I00
sg1112
g0
(g164
g2
Ntp1115
Rp1116
(dp1117
g11
I00
sg19
I01
sg37
S'HFtowers'
p1118
sg20
I00
sbsg20
I00
sg40
I59
sg69
S'/afs/cern.ch/user/m/mguilbau/ForPrabhat/CMSSW_7_5_8_patch3/src/Analyzers/ChargeDepAndPtCorr/cfg/chargedepptcorr_cfg.py'
p1119
sg1113
g0
(g355
g2
Ntp1120
Rp1121
(dp1122
g11
I00
sg19
I01
sg37
I99999999
sg20
I00
sbsg1114
g0
(g292
g2
Ntp1123
Rp1124
(dp1125
g11
I00
sg19
I01
sg20
I00
sg296
S'hiCentrality'
p1126
sg300
g299
sg298
g299
sbsg264
g1106
sg46
S'CentralityBinProducer'
p1127
sg1111
g0
(g164
g2
Ntp1128
Rp1129
(dp1130
g11
I00
sg19
I01
sg37
g299
sg20
I00
sbsbsS'siStripBackPlaneCorrectionDepESProducer'
p1131
g0
(g253
g2
Ntp1132
Rp1133
(dp1134
g38
(lp1135
S'LatencyRecord'
p1136
aS'BackPlaneCorrectionDeconvMode'
p1137
aS'BackPlaneCorrectionPeakMode'
p1138
asg11
I00
sg20
I00
sg40
I40
sg69
g70
sg1136
g0
(g28
g2
Ntp1139
Rp1140
(dp1141
g11
I00
sg19
I01
sg20
I00
sS'label'
p1142
g0
(g164
g2
Ntp1143
Rp1144
(dp1145
g11
I00
sg19
I00
sg37
g299
sg20
I00
sbsg633
g0
(g164
g2
Ntp1146
Rp1147
(dp1148
g11
I00
sg19
I01
sg37
S'SiStripLatencyRcd'
p1149
sg20
I00
sbsg38
(lp1150
g633
ag1142
asbsg1138
g0
(g28
g2
Ntp1151
Rp1152
(dp1153
g11
I00
sg19
I01
sg20
I00
sg1142
g0
(g164
g2
Ntp1154
Rp1155
(dp1156
g11
I00
sg19
I00
sg37
S'peak'
p1157
sg20
I00
sbsg633
g0
(g164
g2
Ntp1158
Rp1159
(dp1160
g11
I00
sg19
I01
sg37
S'SiStripBackPlaneCorrectionRcd'
p1161
sg20
I00
sbsg38
(lp1162
g633
ag1142
asbsg264
g1131
sg1137
g0
(g28
g2
Ntp1163
Rp1164
(dp1165
g11
I00
sg19
I01
sg20
I00
sg1142
g0
(g164
g2
Ntp1166
Rp1167
(dp1168
g11
I00
sg19
I00
sg37
S'deconvolution'
p1169
sg20
I00
sbsg633
g0
(g164
g2
Ntp1170
Rp1171
(dp1172
g11
I00
sg19
I01
sg37
g1161
sg20
I00
sbsg38
(lp1173
g633
ag1142
asbsg46
S'SiStripBackPlaneCorrectionDepESProducer'
p1174
sbsg882
g884
sS'defaultAnalysis'
p1175
g0
(cFWCore.ParameterSet.Modules
EDAnalyzer
p1176
g2
Ntp1177
Rp1178
(dp1179
g38
(lp1180
S'caloTower'
p1181
aS'pTmaxTrk'
p1182
aS'vertex'
p1183
aS'tracks'
p1184
aS'pTminTrk'
p1185
aS'centralitySrc'
p1186
aS'centralityBinSrc'
p1187
asg11
I00
sg1181
g0
(g292
g2
Ntp1188
Rp1189
(dp1190
g11
I00
sg19
I01
sg20
I00
sg296
g297
sg300
g299
sg298
g299
sbsg20
I01
sg40
I72
sg69
g1119
sg1182
g0
(g302
g2
Ntp1191
Rp1192
(dp1193
g11
I00
sg19
I00
sg37
F6.0
sg20
I00
sbsg1183
g0
(g292
g2
Ntp1194
Rp1195
(dp1196
g11
I00
sg19
I01
sg20
I00
sg296
g477
sg300
g299
sg298
g299
sbsg1184
g0
(g292
g2
Ntp1197
Rp1198
(dp1199
g11
I00
sg19
I01
sg20
I00
sg296
S'hiGeneralAndPixelTracks'
p1200
sg300
g299
sg298
g299
sbsg1187
g0
(g292
g2
Ntp1201
Rp1202
(dp1203
g11
I00
sg19
I01
sg20
I00
sg296
S'centralityBin'
p1204
sg300
g1118
sg298
g299
sbsg264
g1175
sg1185
g0
(g302
g2
Ntp1205
Rp1206
(dp1207
g11
I00
sg19
I00
sg37
F0.3
sg20
I00
sbsg1186
g0
(g292
g2
Ntp1208
Rp1209
(dp1210
g11
I00
sg19
I01
sg20
I00
sg296
g1126
sg300
g299
sg298
g299
sbsg46
g1098
sbsS'_cloneToObjectDict'
p1211
(dp1212
I23825872
g0
(g1176
g2
Ntp1213
Rp1214
(dp1215
g38
(lp1216
g1181
ag1182
ag1183
ag1184
ag1185
ag1186
ag1187
asg11
I00
sg1181
g0
(g292
g2
Ntp1217
Rp1218
(dp1219
g11
I00
sg19
I01
sg20
I00
sg296
g297
sg298
g299
sg300
g299
sbsg20
I00
sg40
I15
sg69
S'/afs/cern.ch/user/m/mguilbau/ForPrabhat/CMSSW_7_5_8_patch3/python/Analyzers/ChargeDepAndPtCorr/chargedepptcorr_cfi.py'
p1220
sg1182
g0
(g302
g2
Ntp1221
Rp1222
(dp1223
g11
I00
sg19
I00
sg37
F3.0
sg20
I00
sbsg1183
g0
(g292
g2
Ntp1224
Rp1225
(dp1226
g11
I00
sg19
I01
sg20
I00
sg296
g477
sg298
g299
sg300
g299
sbsg1184
g0
(g292
g2
Ntp1227
Rp1228
(dp1229
g11
I00
sg19
I01
sg20
I00
sg296
g1200
sg298
g299
sg300
g299
sbsg1187
g0
(g292
g2
Ntp1230
Rp1231
(dp1232
g11
I00
sg19
I01
sg20
I00
sg296
g1204
sg298
g299
sg300
g1118
sbsg264
S'defaultCPDC'
p1233
sg1185
g0
(g302
g2
Ntp1234
Rp1235
(dp1236
g11
I00
sg19
I00
sg37
F0.3
sg20
I00
sbsg1186
g0
(g292
g2
Ntp1237
Rp1238
(dp1239
g11
I00
sg19
I01
sg20
I00
sg296
g1126
sg298
g299
sg300
g299
sbsg46
g1098
sbsI23826064
g1178
sI23804688
g465
sI23708688
g0
(g253
g2
Ntp1240
Rp1241
(dp1242
g38
(lp1243
S'PreFilter'
p1244
ag735
aS'NSigmaInside'
p1245
asg11
I00
sg20
I00
sg69
g70
sg735
g0
(g164
g2
Ntp1246
Rp1247
(dp1248
g11
I00
sg19
I01
sg37
S'StandardMatcher'
p1249
sg20
I00
sbsg1244
g0
(g33
g2
Ntp1250
Rp1251
(dp1252
g11
I00
sg19
I01
sg37
I00
sg20
I00
sbsg40
I40
sg1245
g0
(g302
g2
Ntp1253
Rp1254
(dp1255
g11
I00
sg19
I01
sg37
F3.0
sg20
I00
sbsg264
S'SiStripRecHitMatcherESProducer'
p1256
sg46
g1256
sbsI23709456
g0
(g253
g2
Ntp1257
Rp1258
(dp1259
g38
(lp1260
g615
asg11
I00
sg20
I01
sg40
I40
sg69
g70
sg615
g0
(g628
g14
(lp1261
g0
(g28
g2
Ntp1262
Rp1263
(dp1264
g11
I00
sg19
I01
sg20
I00
sg633
g0
(g164
g2
Ntp1265
Rp1266
(dp1267
g11
I00
sg19
I01
sg37
S'SiPixelQualityFromDbRcd'
p1268
sg20
I00
sbsg638
g0
(g164
g2
Ntp1269
Rp1270
(dp1271
g11
I00
sg19
I01
sg37
g299
sg20
I00
sbsg38
(lp1272
g633
ag638
asbag0
(g28
g2
Ntp1273
Rp1274
(dp1275
g11
I00
sg19
I01
sg20
I00
sg633
g0
(g164
g2
Ntp1276
Rp1277
(dp1278
g11
I00
sg19
I01
sg37
S'SiPixelDetVOffRcd'
p1279
sg20
I00
sbsg638
g0
(g164
g2
Ntp1280
Rp1281
(dp1282
g11
I00
sg19
I01
sg37
g299
sg20
I00
sbsg38
(lp1283
g633
ag638
asbatp1284
Rp1285
(dp1286
g11
I00
sg19
I01
sg20
I00
sg21
I1
sbsg264
S'siPixelQualityESProducer'
p1287
sg46
S'SiPixelQualityESProducer'
p1288
sbsI23708816
g0
(g253
g2
Ntp1289
Rp1290
(dp1291
g38
(lp1292
sg11
I00
sg20
I00
sg40
I40
sg69
g70
sg264
S'sistripconn'
p1293
sg46
S'SiStripConnectivity'
p1294
sbsI23803088
g313
sI23659792
g1008
sI23709328
g1092
sI23824272
g384
sI23803408
g334
sI23684752
g0
(g253
g2
Ntp1295
Rp1296
(dp1297
g38
(lp1298
S'printDebug'
p1299
ag610
aS'APVGain'
p1300
aS'AutomaticNormalization'
p1301
asg11
I00
sg610
g0
(g164
g2
Ntp1302
Rp1303
(dp1304
g11
I00
sg19
I01
sg37
g299
sg20
I00
sbsg20
I00
sg1301
g0
(g33
g2
Ntp1305
Rp1306
(dp1307
g11
I00
sg19
I01
sg37
I00
sg20
I00
sbsg40
I40
sg1299
g0
(g33
g2
Ntp1308
Rp1309
(dp1310
g11
I00
sg19
I00
sg37
I00
sg20
I00
sbsg69
g70
sg1300
g0
(g628
g14
(lp1311
g0
(g28
g2
Ntp1312
Rp1313
(dp1314
g11
I00
sg19
I01
sg20
I00
sS'Label'
p1315
g0
(g164
g2
Ntp1316
Rp1317
(dp1318
g11
I00
sg19
I00
sg37
g299
sg20
I00
sbsS'Record'
p1319
g0
(g164
g2
Ntp1320
Rp1321
(dp1322
g11
I00
sg19
I01
sg37
S'SiStripApvGainRcd'
p1323
sg20
I00
sbsS'NormalizationFactor'
p1324
g0
(g302
g2
Ntp1325
Rp1326
(dp1327
g11
I00
sg19
I00
sg37
F1.0
sg20
I00
sbsg38
(lp1328
g1319
ag1324
ag1315
asbag0
(g28
g2
Ntp1329
Rp1330
(dp1331
g11
I00
sg19
I01
sg20
I00
sg1315
g0
(g164
g2
Ntp1332
Rp1333
(dp1334
g11
I00
sg19
I00
sg37
g299
sg20
I00
sbsg1319
g0
(g164
g2
Ntp1335
Rp1336
(dp1337
g11
I00
sg19
I01
sg37
S'SiStripApvGain2Rcd'
p1338
sg20
I00
sbsg1324
g0
(g302
g2
Ntp1339
Rp1340
(dp1341
g11
I00
sg19
I00
sg37
F1.0
sg20
I00
sbsg38
(lp1342
g1319
ag1324
ag1315
asbatp1343
Rp1344
(dp1345
g11
I00
sg19
I01
sg20
I00
sg21
I1
sbsg264
S'siStripGainESProducer'
p1346
sg46
S'SiStripGainESProducer'
p1347
sbsI23803600
g351
sI23686800
g731
sI23804048
g442
sI23803792
g365
sI23803920
g271
sI23660688
g868
sI23804112
g453
sI23804304
g435
sI23661008
g918
sI23685648
g0
(g253
g2
Ntp1348
Rp1349
(dp1350
g38
(lp1351
g1136
aS'LorentzAngleDeconvMode'
p1352
aS'LorentzAnglePeakMode'
p1353
asg11
I00
sg20
I00
sg40
I40
sg69
g70
sg1136
g0
(g28
g2
Ntp1354
Rp1355
(dp1356
g11
I00
sg19
I01
sg20
I00
sg1142
g0
(g164
g2
Ntp1357
Rp1358
(dp1359
g11
I00
sg19
I00
sg37
g299
sg20
I00
sbsg633
g0
(g164
g2
Ntp1360
Rp1361
(dp1362
g11
I00
sg19
I01
sg37
g1149
sg20
I00
sbsg38
(lp1363
g633
ag1142
asbsg264
S'siStripLorentzAngleDepESProducer'
p1364
sg1353
g0
(g28
g2
Ntp1365
Rp1366
(dp1367
g11
I00
sg19
I01
sg20
I00
sg1142
g0
(g164
g2
Ntp1368
Rp1369
(dp1370
g11
I00
sg19
I00
sg37
g1157
sg20
I00
sbsg633
g0
(g164
g2
Ntp1371
Rp1372
(dp1373
g11
I00
sg19
I01
sg37
S'SiStripLorentzAngleRcd'
p1374
sg20
I00
sbsg38
(lp1375
g633
ag1142
asbsg46
S'SiStripLorentzAngleDepESProducer'
p1376
sg1352
g0
(g28
g2
Ntp1377
Rp1378
(dp1379
g11
I00
sg19
I01
sg20
I00
sg1142
g0
(g164
g2
Ntp1380
Rp1381
(dp1382
g11
I00
sg19
I00
sg37
g1169
sg20
I00
sbsg633
g0
(g164
g2
Ntp1383
Rp1384
(dp1385
g11
I00
sg19
I01
sg37
g1374
sg20
I00
sbsg38
(lp1386
g633
ag1142
asbsbsI23718480
g806
sI23718672
g0
(g311
g2
Ntp1387
Rp1388
(dp1389
g38
(lp1390
g809
ag813
ag811
ag812
ag810
asg11
I00
sg811
g0
(g13
g14
(lp1391
S'HLT_HIL1MinimumBiasHF1AND*'
p1392
aS'HLT_HIL1MinimumBiasHF2AND*'
p1393
atp1394
Rp1395
(dp1396
g11
I00
sg19
I01
sg20
I01
sg21
I1
sbsg20
I01
sg40
I49
sg69
g1119
sg264
S'hltMB'
p1397
sg809
g0
(g164
g2
Ntp1398
Rp1399
(dp1400
g11
I00
sg19
I01
sg37
g299
sg20
I00
sbsg810
g0
(g292
g2
Ntp1401
Rp1402
(dp1403
g11
I00
sg19
I01
sg20
I00
sg296
g832
sg300
g299
sg298
g833
sbsg812
g0
(g33
g2
Ntp1404
Rp1405
(dp1406
g11
I00
sg19
I01
sg37
I00
sg20
I00
sbsg46
g828
sg813
g0
(g33
g2
Ntp1407
Rp1408
(dp1409
g11
I00
sg19
I01
sg37
I01
sg20
I00
sbsbsI23802640
g282
sI23825424
g1063
sI23805072
g484
sI23686352
g1133
sI23805200
g836
sI23661392
g884
sI23661968
g936
sI23662032
g1102
sI23686672
g851
sI23576144
g875
sI23781008
g1108
sI23826128
g0
(cFWCore.ParameterSet.SequenceTypes
Path
p1410
g2
Ntp1411
Rp1412
(dp1413
g11
I00
sg273
g0
(g274
g2
Ntp1414
Rp1415
(dp1416
g278
(lp1417
g435
ag465
ag1063
ag0
(g280
g2
Ntp1418
Rp1419
(dp1420
g38
(lp1421
g1112
ag1114
ag1113
ag1111
asg11
I00
sg1112
g0
(g164
g2
Ntp1422
Rp1423
(dp1424
g11
I00
sg19
I01
sg37
g1118
sg20
I00
sbsg20
I00
sg40
I7
sg69
S'/cvmfs/cms.cern.ch/slc6_amd64_gcc491/cms/cmssw-patch/CMSSW_7_5_8_patch3/python/RecoHI/HiCentralityAlgos/CentralityBin_cfi.py'
p1425
sg1113
g0
(g355
g2
Ntp1426
Rp1427
(dp1428
g11
I00
sg19
I01
sg37
I99999999
sg20
I00
sbsg1114
g0
(g292
g2
Ntp1429
Rp1430
(dp1431
g11
I00
sg19
I01
sg20
I00
sg296
g1126
sg298
g299
sg300
g299
sbsg264
g1204
sg46
g1127
sg1111
g0
(g164
g2
Ntp1432
Rp1433
(dp1434
g11
I00
sg19
I01
sg37
g299
sg20
I00
sbsbag1388
ag1178
asbsg20
I00
sg264
S'p'
p1435
sbsI23710608
g607
sI23822608
g504
sI23780944
g1419
sI23659664
g545
sI23822864
g255
sI23824144
g0
(g311
g2
Ntp1436
Rp1437
(dp1438
g38
(lp1439
g387
ag388
ag389
ag390
ag391
ag392
ag393
ag394
ag395
ag396
asg11
I00
sg20
I00
sg388
g0
(g33
g2
Ntp1440
Rp1441
(dp1442
g11
I00
sg19
I01
sg37
I00
sg20
I00
sbsg387
g0
(g164
g2
Ntp1443
Rp1444
(dp1445
g11
I00
sg19
I01
sg37
g299
sg20
I00
sbsg69
S'/cvmfs/cms.cern.ch/slc6_amd64_gcc491/cms/cmssw-patch/CMSSW_7_5_8_patch3/cfipython/slc6_amd64_gcc491/HLTrigger/HLTfilters/hltLevel1GTSeed_cfi.py'
p1446
sg389
g0
(g292
g2
Ntp1447
Rp1448
(dp1449
g11
I00
sg19
I01
sg20
I00
sg296
g408
sg298
g299
sg300
g299
sbsg390
g0
(g33
g2
Ntp1450
Rp1451
(dp1452
g11
I00
sg19
I01
sg37
I01
sg20
I00
sbsg391
g0
(g33
g2
Ntp1453
Rp1454
(dp1455
g11
I00
sg19
I01
sg37
I01
sg20
I00
sbsg392
g0
(g292
g2
Ntp1456
Rp1457
(dp1458
g11
I00
sg19
I01
sg20
I00
sg296
g418
sg298
g299
sg300
g299
sbsg40
I13
sg393
g0
(g292
g2
Ntp1459
Rp1460
(dp1461
g11
I00
sg19
I01
sg20
I00
sg296
g408
sg298
g299
sg300
g299
sbsg394
g0
(g103
g2
Ntp1462
Rp1463
(dp1464
g11
I00
sg19
I01
sg37
I3
sg20
I00
sbsg264
S'hltLevel1GTSeed'
p1465
sg395
g0
(g292
g2
Ntp1466
Rp1467
(dp1468
g11
I00
sg19
I01
sg20
I00
sg296
g429
sg298
g299
sg300
g299
sbsg396
g0
(g33
g2
Ntp1469
Rp1470
(dp1471
g11
I00
sg19
I01
sg37
I00
sg20
I00
sbsg46
g433
sbsI23824400
g377
sI23823120
g987
ssg1346
g1296
sg462
g453
sg985
g987
sg1293
g1290
sS'_Process__esprefers'
p1472
(dp1473
g1099
g1102
ssg1256
g1241
sS'_Process__schedule'
p1474
NsS'_Process__partialschedules'
p1475
(dp1476
sS'_Process__outputmodules'
p1477
(dp1478
sS'_Process__analyzers'
p1479
(dp1480
g1175
g1178
sg1233
g1214
ssS'_Process__InExtendCall'
p1481
I00
sg1364
g1349
sS'_Process__modifiers'
p1482
(tsS'_Process__producers'
p1483
(dp1484
g1204
g1419
sg501
g484
sg834
g836
sg309
g282
sg1106
g1108
ssg362
g351
sg1287
g1258
sg1006
g1008
sg346
g334
sS'_Process__filters'
p1485
(dp1486
g425
g384
sg328
g313
sg481
g465
sg462
g453
sg1465
g1437
sg1061
g1063
sg451
g442
sg346
g334
sg804
g806
sg532
g504
sg1397
g1388
sg374
g365
sg362
g351
ssS'_Process__looper'
p1487
Nsg1465
g1437
sS'_Process__endpaths'
p1488
g0
(cFWCore.ParameterSet.DictTypes
SortedKeysDict
p1489
c__builtin__
dict
p1490
(dp1491
tp1492
Rp1493
(dp1494
S'list'
p1495
(lp1496
sbsS'_Process__esproducers'
p1497
(dp1498
g1364
g1349
sg849
g851
sg1256
g1241
sg1287
g1258
sg916
g918
sg1346
g1296
sg1293
g1290
sg729
g731
sg1090
g1092
sg866
g868
sg1131
g1133
sg605
g607
sg252
g255
ssg1435
g1412
sS'_Process__paths'
p1499
g0
(g1489
g1490
(dp1500
g1435
g1412
stp1501
Rp1502
(dp1503
g1495
(lp1504
g1435
asbsg1233
g1214
sg1204
g1419
sg1397
g1388
sS'_Process__subProcess'
p1505
Nsg501
g484
sg463
g435
sS'_Process__isStrict'
p1506
I00
sb.