(dp0
S'voGroup'
p1
S''
p2
sS'Server'
p3
S'cmsweb.cern.ch'
p4
sS'instance'
p5
S'prod'
p6
sS'RequestName'
p7
S'171129_102037:mguilbau_crab_pPb2016_Pbp_cumulants_2sub_b15_v10'
p8
sS'voRole'
p9
g2
sS'Port'
p10
g2
s.