(dp1
S'OriginalConfig'
p2
ccopy_reg
_reconstructor
p3
(cWMCore.Configuration
Configuration
p4
c__builtin__
object
p5
NtRp6
(dp7
S'Site'
p8
g3
(cWMCore.Configuration
ConfigSection
p9
g5
NtRp10
(dp11
S'_internal_skipChecks'
p12
I00
sS'_internal_documentation'
p13
S''
sS'_internal_settings'
p14
c__builtin__
set
p15
((lp16
S'storageSite'
p17
atRp18
sS'_internal_name'
p19
g8
sS'_internal_docstrings'
p20
(dp21
sS'_internal_children'
p22
g15
((ltRp23
sg17
S'T2_CH_CERN'
p24
sS'_internal_parent_ref'
p25
NsbsS'_internal_sections'
p26
(lp27
S'General'
p28
aS'JobType'
p29
aS'Data'
p30
ag8
aS'User'
p31
aS'Debug'
p32
asg28
g3
(g9
g5
NtRp33
(dp34
S'transferLogs'
p35
I00
sg12
I00
sg13
S''
sg14
g15
((lp36
g35
aS'transferOutputs'
p37
aS'workArea'
p38
aS'requestName'
p39
atRp40
sg19
g28
sg20
(dp41
sg37
I01
sg22
g15
((ltRp42
sg39
S'PbPb5TeVPixReco_2015_MB2_v0'
p43
sg25
Nsg38
S'PbPb2015PixRecoAna_data'
p44
sbsS'_internal_webapps'
p45
(lp46
sg31
g3
(g9
g5
NtRp47
(dp48
g12
I00
sg13
S''
sg14
g15
((ltRp49
sg19
g31
sg20
(dp50
sg22
g15
((ltRp51
sg25
NsbsS'_internal_components'
p52
(lp53
sg32
g3
(g9
g5
NtRp54
(dp55
g12
I00
sg13
S''
sg14
g15
((ltRp56
sg19
g32
sg20
(dp57
sg22
g15
((ltRp58
sg25
Nsbsg30
g3
(g9
g5
NtRp59
(dp60
S'inputDataset'
p61
S'/HIMinimumBias2/HIRun2015-25Aug2016-v1/AOD'
p62
sg12
I00
sS'splitting'
p63
S'LumiBased'
p64
sS'unitsPerJob'
p65
I10
sg13
S''
sg14
g15
((lp66
g61
aS'publication'
p67
ag65
ag63
aS'inputDBS'
p68
aS'outLFNDirBase'
p69
aS'lumiMask'
p70
atRp71
sg19
g30
sg68
S'global'
p72
sg20
(dp73
sg22
g15
((ltRp74
sg69
S'/store/user/mguilbau/'
p75
sg25
Nsg70
S'/afs/cern.ch/user/m/mguilbau/ForPrabhat/CMSSW_7_5_8_patch3/src/Analyzers/ChargeDepAndPtCorr/data/JSON/Cert_262548-263757_PromptReco_HICollisions15_JSON_v2.txt'
p76
sg67
I00
sbsg29
g3
(g9
g5
NtRp77
(dp78
g12
I00
sg13
S''
sg14
g15
((lp79
S'psetName'
p80
aS'pluginName'
p81
atRp82
sg19
g29
sg20
(dp83
sg81
S'Analysis'
p84
sg22
g15
((ltRp85
sg80
S'/afs/cern.ch/user/m/mguilbau/ForPrabhat/CMSSW_7_5_8_patch3/src/Analyzers/ChargeDepAndPtCorr/cfg/chargedepptcorr_cfg.py'
p86
sg25
NsbsbsS'voGroup'
p87
S''
sS'Server'
p88
S'cmsweb.cern.ch'
p89
sS'instance'
p90
S'prod'
p91
sS'RequestName'
p92
V170609_113744:mguilbau_crab_PbPb5TeVPixReco_2015_MB2_v0
p93
sS'voRole'
p94
S'NULL'
p95
sS'Port'
p96
S''
s.