ccopy_reg
_reconstructor
p0
(cFWCore.ParameterSet.Config
Process
p1
c__builtin__
object
p2
Ntp3
Rp4
(dp5
S'MessageLogger'
p6
g0
(cFWCore.ParameterSet.Modules
Service
p7
g2
Ntp8
Rp9
(dp10
S'_isFrozen'
p11
I00
sS'suppressInfo'
p12
g0
(cFWCore.ParameterSet.Types
vstring
p13
c__builtin__
list
p14
(lp15
tp16
Rp17
(dp18
g11
I00
sS'_ParameterTypeBase__isTracked'
p19
I00
sS'_isModified'
p20
I00
sS'_nPerLine'
p21
I1
sbsS'suppressDebug'
p22
g0
(g13
g14
(lp23
tp24
Rp25
(dp26
g11
I00
sg19
I00
sg20
I00
sg21
I1
sbsS'cout'
p27
g0
(cFWCore.ParameterSet.Types
PSet
p28
g2
Ntp29
Rp30
(dp31
g11
I00
sg19
I00
sS'placeholder'
p32
g0
(cFWCore.ParameterSet.Types
bool
p33
g2
Ntp34
Rp35
(dp36
g11
I00
sg19
I00
sS'_value'
p37
I01
sg20
I00
sbsg20
I00
sS'_Parameterizable__parameterNames'
p38
(lp39
g32
asbsS'_lineNumber'
p40
I10
sS'debugModules'
p41
g0
(g13
g14
(lp42
tp43
Rp44
(dp45
g11
I00
sg19
I00
sg20
I00
sg21
I1
sbsS'_TypedParameterizable__type'
p46
g6
sS'fwkJobReports'
p47
g0
(g13
g14
(lp48
S'FrameworkJobReport'
p49
atp50
Rp51
(dp52
g11
I00
sg19
I00
sg20
I00
sg21
I1
sbsg38
(lp53
g12
aS'debugs'
p54
ag22
ag27
aS'cerr_stats'
p55
aS'warnings'
p56
aS'default'
p57
aS'statistics'
p58
aS'cerr'
p59
ag49
aS'suppressWarning'
p60
aS'errors'
p61
aS'destinations'
p62
ag41
aS'infos'
p63
aS'categories'
p64
ag47
asg58
g0
(g13
g14
(lp65
g55
atp66
Rp67
(dp68
g11
I00
sg19
I00
sg20
I00
sg21
I1
sbsS'_filename'
p69
S'/cvmfs/cms.cern.ch/slc6_amd64_gcc472/cms/cmssw/CMSSW_5_3_20/python/FWCore/ParameterSet/Modules.py'
p70
sg62
g0
(g13
g14
(lp71
g56
ag61
ag63
ag54
ag27
ag59
atp72
Rp73
(dp74
g11
I00
sg19
I00
sg20
I00
sg21
I1
sbsg54
g0
(g28
g2
Ntp75
Rp76
(dp77
g11
I00
sg19
I00
sg32
g0
(g33
g2
Ntp78
Rp79
(dp80
g11
I00
sg19
I00
sg37
I01
sg20
I00
sbsg20
I00
sg38
(lp81
g32
asbsg56
g0
(g28
g2
Ntp82
Rp83
(dp84
g11
I00
sg19
I00
sg32
g0
(g33
g2
Ntp85
Rp86
(dp87
g11
I00
sg19
I00
sg37
I01
sg20
I00
sbsg20
I00
sg38
(lp88
g32
asbsg61
g0
(g28
g2
Ntp89
Rp90
(dp91
g11
I00
sg19
I00
sg32
g0
(g33
g2
Ntp92
Rp93
(dp94
g11
I00
sg19
I00
sg37
I01
sg20
I00
sbsg20
I00
sg38
(lp95
g32
asbsg49
g0
(g28
g2
Ntp96
Rp97
(dp98
g11
I00
sg19
I00
sg20
I00
sg57
g0
(g28
g2
Ntp99
Rp100
(dp101
g11
I00
sg19
I00
sS'limit'
p102
g0
(cFWCore.ParameterSet.Types
int32
p103
g2
Ntp104
Rp105
(dp106
g11
I00
sg19
I00
sg37
I0
sg20
I00
sbsg20
I00
sg38
(lp107
g102
asbsS'FwkJob'
p108
g0
(g28
g2
Ntp109
Rp110
(dp111
g11
I00
sg19
I00
sg20
I00
sg102
g0
(g103
g2
Ntp112
Rp113
(dp114
g11
I00
sg19
I00
sg37
I10000000
sg20
I00
sbsg38
(lp115
S'optionalPSet'
p116
ag102
asg116
g0
(g33
g2
Ntp117
Rp118
(dp119
g11
I00
sg19
I00
sg37
I01
sg20
I00
sbsbsg38
(lp120
g57
ag116
ag108
asg116
g0
(g33
g2
Ntp121
Rp122
(dp123
g11
I00
sg19
I00
sg37
I01
sg20
I00
sbsbsg60
g0
(g13
g14
(lp124
tp125
Rp126
(dp127
g11
I00
sg19
I00
sg20
I00
sg21
I1
sbsg63
g0
(g28
g2
Ntp128
Rp129
(dp130
g11
I00
sg19
I00
sg20
I00
sS'Root_NoDictionary'
p131
g0
(g28
g2
Ntp132
Rp133
(dp134
g11
I00
sg19
I00
sg20
I00
sg102
g0
(g103
g2
Ntp135
Rp136
(dp137
g11
I00
sg19
I00
sg37
I0
sg20
I00
sbsg38
(lp138
g116
ag102
asg116
g0
(g33
g2
Ntp139
Rp140
(dp141
g11
I00
sg19
I00
sg37
I01
sg20
I00
sbsbsg38
(lp142
g116
ag131
ag32
asg116
g0
(g33
g2
Ntp143
Rp144
(dp145
g11
I00
sg19
I00
sg37
I01
sg20
I00
sbsg32
g0
(g33
g2
Ntp146
Rp147
(dp148
g11
I00
sg19
I00
sg37
I01
sg20
I00
sbsbsg64
g0
(g13
g14
(lp149
g108
aS'FwkReport'
p150
aS'FwkSummary'
p151
ag131
atp152
Rp153
(dp154
g11
I00
sg19
I00
sg20
I00
sg21
I1
sbsg20
I00
sg55
g0
(g28
g2
Ntp155
Rp156
(dp157
g11
I00
sg19
I00
sg20
I00
sg116
g0
(g33
g2
Ntp158
Rp159
(dp160
g11
I00
sg19
I00
sg37
I01
sg20
I00
sbsg38
(lp161
S'threshold'
p162
aS'output'
p163
ag116
asg162
g0
(cFWCore.ParameterSet.Types
string
p164
g2
Ntp165
Rp166
(dp167
g11
I00
sg19
I00
sg37
S'WARNING'
p168
sg20
I00
sbsg163
g0
(g164
g2
Ntp169
Rp170
(dp171
g11
I00
sg19
I00
sg37
g59
sg20
I00
sbsbsg57
g0
(g28
g2
Ntp172
Rp173
(dp174
g11
I00
sg19
I00
sg20
I00
sg38
(lp175
sbsg59
g0
(g28
g2
Ntp176
Rp177
(dp178
g11
I00
sg19
I00
sS'noTimeStamps'
p179
g0
(g33
g2
Ntp180
Rp181
(dp182
g11
I00
sg19
I00
sg37
I00
sg20
I00
sbsg150
g0
(g28
g2
Ntp183
Rp184
(dp185
g11
I00
sg19
I00
sg20
I01
sS'reportEvery'
p186
g0
(g103
g2
Ntp187
Rp188
(dp189
g11
I00
sg19
I00
sg37
I100000
sg20
I01
sbsg102
g0
(g103
g2
Ntp190
Rp191
(dp192
g11
I00
sg19
I00
sg37
I10000000
sg20
I00
sbsg38
(lp193
g186
ag116
ag102
asg116
g0
(g33
g2
Ntp194
Rp195
(dp196
g11
I00
sg19
I00
sg37
I01
sg20
I00
sbsbsg20
I00
sg57
g0
(g28
g2
Ntp197
Rp198
(dp199
g11
I00
sg19
I00
sg102
g0
(g103
g2
Ntp200
Rp201
(dp202
g11
I00
sg19
I00
sg37
I10000000
sg20
I00
sbsg20
I00
sg38
(lp203
g102
asbsg131
g0
(g28
g2
Ntp204
Rp205
(dp206
g11
I00
sg19
I00
sg20
I00
sg102
g0
(g103
g2
Ntp207
Rp208
(dp209
g11
I00
sg19
I00
sg37
I0
sg20
I00
sbsg38
(lp210
g116
ag102
asg116
g0
(g33
g2
Ntp211
Rp212
(dp213
g11
I00
sg19
I00
sg37
I01
sg20
I00
sbsbsS'INFO'
p214
g0
(g28
g2
Ntp215
Rp216
(dp217
g11
I00
sg19
I00
sg102
g0
(g103
g2
Ntp218
Rp219
(dp220
g11
I00
sg19
I00
sg37
I0
sg20
I00
sbsg20
I00
sg38
(lp221
g102
asbsg116
g0
(g33
g2
Ntp222
Rp223
(dp224
g11
I00
sg19
I00
sg37
I01
sg20
I00
sbsg108
g0
(g28
g2
Ntp225
Rp226
(dp227
g11
I00
sg19
I00
sg20
I00
sg102
g0
(g103
g2
Ntp228
Rp229
(dp230
g11
I00
sg19
I00
sg37
I0
sg20
I00
sbsg38
(lp231
g116
ag102
asg116
g0
(g33
g2
Ntp232
Rp233
(dp234
g11
I00
sg19
I00
sg37
I01
sg20
I00
sbsbsg151
g0
(g28
g2
Ntp235
Rp236
(dp237
g11
I00
sg19
I00
sg20
I00
sg186
g0
(g103
g2
Ntp238
Rp239
(dp240
g11
I00
sg19
I00
sg37
I1
sg20
I00
sbsg102
g0
(g103
g2
Ntp241
Rp242
(dp243
g11
I00
sg19
I00
sg37
I10000000
sg20
I00
sbsg38
(lp244
g186
ag116
ag102
asg116
g0
(g33
g2
Ntp245
Rp246
(dp247
g11
I00
sg19
I00
sg37
I01
sg20
I00
sbsbsg38
(lp248
g214
ag179
ag150
ag57
ag131
ag162
ag108
ag151
ag116
asg162
g0
(g164
g2
Ntp249
Rp250
(dp251
g11
I00
sg19
I00
sg37
g214
sg20
I00
sbsbsbsS'_Process__sequences'
p252
(dp253
sS'_Process__services'
p254
(dp255
g6
g9
sS'TFileService'
p256
g0
(g7
g2
Ntp257
Rp258
(dp259
g38
(lp260
S'fileName'
p261
asg11
I00
sg20
I00
sg40
I10
sg69
g70
sg261
g0
(g164
g2
Ntp262
Rp263
(dp264
g11
I00
sg19
I01
sg37
S'/afs/cern.ch/user/m/mguilbau/AnalyzerForWei/CMSSW_5_3_20/src/Analyzers/NtrkDistribution/test/ntrkdist.root'
p265
sg20
I00
sbsg46
g256
sbssS'_Process__source'
p266
g0
(cFWCore.ParameterSet.Modules
Source
p267
g2
Ntp268
Rp269
(dp270
g38
(lp271
S'fileNames'
p272
asg11
I00
sg20
I00
sg40
I175
sg69
g70
sg272
g0
(g13
g14
(lp273
S'root://cms-xrd-global.cern.ch///store/user/davidlw/PAMinBiasUPC/PA2013_FlowCorr_PromptReco_MB_Gplus_ReTracking_v18/25c9a89be536a41c8ccb3c75e9fd9358/pPb_HM_1000_1_Miz.root'
p274
atp275
Rp276
(dp277
g11
I00
sg19
I00
sg20
I00
sg21
I1
sbsg46
S'PoolSource'
p278
sbsS'_Process__psets'
p279
(dp280
S'maxEvents'
p281
g0
(g28
g2
Ntp282
Rp283
(dp284
g11
I00
sg19
I00
sg20
I00
sg38
(lp285
S'input'
p286
asS'_Labelable__label'
p287
g281
sg286
g0
(g103
g2
Ntp288
Rp289
(dp290
g11
I00
sg19
I00
sg37
I-1
sg20
I00
sbsbsS'options'
p291
g0
(g28
g2
Ntp292
Rp293
(dp294
g11
I00
sg19
I00
sg20
I00
sS'wantSummary'
p295
g0
(g33
g2
Ntp296
Rp297
(dp298
g11
I00
sg19
I00
sg37
I01
sg20
I00
sbsg38
(lp299
g295
asg287
g291
sbssg256
g258
sS'_Process__essources'
p300
(dp301
sg278
g269
sg281
g283
sS'source'
p302
g269
sS'_Process__vpsets'
p303
(dp304
sS'_Process__name'
p305
S'NtrkDistribution'
p306
sS'defaultNtrkDist'
p307
g0
(cFWCore.ParameterSet.Modules
EDAnalyzer
p308
g2
Ntp309
Rp310
(dp311
g11
I00
sg40
I36
sS'maxvz'
p312
g0
(cFWCore.ParameterSet.Types
double
p313
g2
Ntp314
Rp315
(dp316
g11
I00
sg19
I00
sg37
F150.0
sg20
I00
sbsS'pterrorptnoff'
p317
g0
(g313
g2
Ntp318
Rp319
(dp320
g11
I00
sg19
I00
sg37
F0.10000000000000001
sg20
I00
sbsS'd0d0errornoff'
p321
g0
(g313
g2
Ntp322
Rp323
(dp324
g11
I00
sg19
I00
sg37
F3.0
sg20
I00
sbsS'pterrorpt'
p325
g0
(g313
g2
Ntp326
Rp327
(dp328
g11
I00
sg19
I00
sg37
F0.10000000000000001
sg20
I00
sbsS'ptmin'
p329
g0
(g313
g2
Ntp330
Rp331
(dp332
g11
I00
sg19
I00
sg37
F0.29999999999999999
sg20
I00
sbsS'd0d0error'
p333
g0
(g313
g2
Ntp334
Rp335
(dp336
g11
I00
sg19
I00
sg37
F3.0
sg20
I00
sbsS'noffmin'
p337
g0
(g103
g2
Ntp338
Rp339
(dp340
g11
I00
sg19
I00
sg37
I0
sg20
I00
sbsS'ptnoffmin'
p341
g0
(g313
g2
Ntp342
Rp343
(dp344
g11
I00
sg19
I00
sg37
F0.40000000000000002
sg20
I00
sbsg38
(lp345
g312
ag317
ag321
ag325
ag329
aS'ptmax'
p346
ag337
aS'centralityBinSrc'
p347
ag333
aS'dzdzerrornoff'
p348
aS'maxrho'
p349
aS'minvz'
p350
aS'etamin'
p351
aS'dzdzerror'
p352
ag341
aS'fname'
p353
aS'etamax'
p354
aS'isBVselByMult'
p355
aS'caloTower'
p356
aS'vertex'
p357
aS'tracks'
p358
aS'ptnoffmax'
p359
aS'effmultbin'
p360
aS'noffmax'
p361
aS'centralitySrc'
p362
asg346
g0
(g313
g2
Ntp363
Rp364
(dp365
g11
I00
sg19
I00
sg37
F3.0
sg20
I00
sbsg69
S'/afs/cern.ch/user/m/mguilbau/AnalyzerForWei/CMSSW_5_3_20/python/Analyzers/NtrkDistribution/ntrkdist_cfi.py'
p366
sg348
g0
(g313
g2
Ntp367
Rp368
(dp369
g11
I00
sg19
I00
sg37
F3.0
sg20
I00
sbsg349
g0
(g313
g2
Ntp370
Rp371
(dp372
g11
I00
sg19
I00
sg37
F100.0
sg20
I00
sbsg350
g0
(g313
g2
Ntp373
Rp374
(dp375
g11
I00
sg19
I00
sg37
F-150.0
sg20
I00
sbsg351
g0
(g313
g2
Ntp376
Rp377
(dp378
g11
I00
sg19
I00
sg37
F-2.3999999999999999
sg20
I00
sbsg352
g0
(g313
g2
Ntp379
Rp380
(dp381
g11
I00
sg19
I00
sg37
F3.0
sg20
I00
sbsg347
g0
(cFWCore.ParameterSet.Types
InputTag
p382
g2
Ntp383
Rp384
(dp385
g11
I00
sg19
I01
sg20
I00
sS'_InputTag__moduleLabel'
p386
S'centralityBin'
p387
sS'_InputTag__processName'
p388
S''
p389
sS'_InputTag__productInstance'
p390
S'HFtowers'
p391
sbsg353
g0
(g382
g2
Ntp392
Rp393
(dp394
g11
I00
sg19
I00
sg20
I00
sg386
S'TrackCorrections_HIJING_538_OFFICIAL_Mar24.root'
p395
sg388
g389
sg390
g389
sbsg354
g0
(g313
g2
Ntp396
Rp397
(dp398
g11
I00
sg19
I00
sg37
F2.3999999999999999
sg20
I00
sbsg359
g0
(g313
g2
Ntp399
Rp400
(dp401
g11
I00
sg19
I00
sg37
I100000
sg20
I00
sbsg356
g0
(g382
g2
Ntp402
Rp403
(dp404
g11
I00
sg19
I01
sg20
I00
sg386
S'towerMaker'
p405
sg388
g389
sg390
g389
sbsg357
g0
(g382
g2
Ntp406
Rp407
(dp408
g11
I00
sg19
I01
sg20
I00
sg386
S'offlinePrimaryVertices'
p409
sg388
g389
sg390
g389
sbsg358
g0
(g382
g2
Ntp410
Rp411
(dp412
g11
I00
sg19
I01
sg20
I00
sg386
S'generalTracks'
p413
sg388
g389
sg390
g389
sbsg355
g0
(g33
g2
Ntp414
Rp415
(dp416
g11
I00
sg19
I00
sg37
I01
sg20
I00
sbsg46
g306
sg20
I00
sg362
g0
(g382
g2
Ntp417
Rp418
(dp419
g11
I00
sg19
I01
sg20
I00
sg386
S'hiCentrality'
p420
sg388
g389
sg390
g389
sbsg361
g0
(g103
g2
Ntp421
Rp422
(dp423
g11
I00
sg19
I00
sg37
I100000
sg20
I00
sbsg287
g307
sg360
g0
(cFWCore.ParameterSet.Types
vint32
p424
g14
(lp425
I0
aI10000
atp426
Rp427
(dp428
g11
I00
sg19
I00
sg20
I00
sbsbsS'_cloneToObjectDict'
p429
(dp430
I31450512
g283
sI31450704
g293
sI31451280
g310
sI31566032
g0
(cFWCore.ParameterSet.SequenceTypes
Path
p431
g2
Ntp432
Rp433
(dp434
g11
I00
sS'_seq'
p435
g0
(cFWCore.ParameterSet.SequenceTypes
_SequenceCollection
p436
g2
Ntp437
Rp438
(dp439
S'_collection'
p440
(lp441
g0
(g308
g2
Ntp442
Rp443
(dp444
g11
I00
sg40
I79
sg312
g0
(g313
g2
Ntp445
Rp446
(dp447
g11
I00
sg19
I00
sg37
F150.0
sg20
I00
sbsg317
g0
(g313
g2
Ntp448
Rp449
(dp450
g11
I00
sg19
I00
sg37
F0.10000000000000001
sg20
I00
sbsg321
g0
(g313
g2
Ntp451
Rp452
(dp453
g11
I00
sg19
I00
sg37
F3.0
sg20
I00
sbsg325
g0
(g313
g2
Ntp454
Rp455
(dp456
g11
I00
sg19
I00
sg37
F0.10000000000000001
sg20
I00
sbsg329
g0
(g313
g2
Ntp457
Rp458
(dp459
g11
I00
sg19
I00
sg37
F0.29999999999999999
sg20
I00
sbsg346
g0
(g313
g2
Ntp460
Rp461
(dp462
g11
I00
sg19
I00
sg37
F3.0
sg20
I00
sbsg337
g0
(g103
g2
Ntp463
Rp464
(dp465
g11
I00
sg19
I00
sg37
I0
sg20
I00
sbsg341
g0
(g313
g2
Ntp466
Rp467
(dp468
g11
I00
sg19
I00
sg37
F0.40000000000000002
sg20
I00
sbsg38
(lp469
g312
ag317
ag321
ag325
ag329
ag333
ag337
ag341
ag346
ag348
ag349
ag350
ag351
ag352
ag347
ag353
ag354
ag359
ag356
ag357
ag358
ag355
ag362
ag361
ag360
asg333
g0
(g313
g2
Ntp470
Rp471
(dp472
g11
I00
sg19
I00
sg37
F3.0
sg20
I00
sbsg69
S'/afs/cern.ch/user/m/mguilbau/AnalyzerForWei/CMSSW_5_3_20/src/Analyzers/NtrkDistribution/cfg/pPb5TeV_MB_ntrkdist_cfg.py'
p473
sg348
g0
(g313
g2
Ntp474
Rp475
(dp476
g11
I00
sg19
I00
sg37
F3.0
sg20
I00
sbsg349
g0
(g313
g2
Ntp477
Rp478
(dp479
g11
I00
sg19
I00
sg37
F100.0
sg20
I00
sbsg350
g0
(g313
g2
Ntp480
Rp481
(dp482
g11
I00
sg19
I00
sg37
F-150.0
sg20
I00
sbsg351
g0
(g313
g2
Ntp483
Rp484
(dp485
g11
I00
sg19
I00
sg37
F-2.3999999999999999
sg20
I00
sbsg352
g0
(g313
g2
Ntp486
Rp487
(dp488
g11
I00
sg19
I00
sg37
F3.0
sg20
I00
sbsg347
g0
(g382
g2
Ntp489
Rp490
(dp491
g11
I00
sg19
I01
sg20
I00
sg386
g387
sg390
g391
sg388
g389
sbsg353
g0
(g382
g2
Ntp492
Rp493
(dp494
g11
I00
sg19
I00
sg20
I00
sg386
g395
sg390
g389
sg388
g389
sbsg354
g0
(g313
g2
Ntp495
Rp496
(dp497
g11
I00
sg19
I00
sg37
F2.3999999999999999
sg20
I00
sbsg355
g0
(g33
g2
Ntp498
Rp499
(dp500
g11
I00
sg19
I00
sg37
I01
sg20
I00
sbsg356
g0
(g382
g2
Ntp501
Rp502
(dp503
g11
I00
sg19
I01
sg20
I00
sg386
g405
sg390
g389
sg388
g389
sbsg357
g0
(g382
g2
Ntp504
Rp505
(dp506
g11
I00
sg19
I01
sg20
I00
sg386
g409
sg390
g389
sg388
g389
sbsg358
g0
(g382
g2
Ntp507
Rp508
(dp509
g11
I00
sg19
I01
sg20
I00
sg386
g413
sg390
g389
sg388
g389
sbsg359
g0
(g313
g2
Ntp510
Rp511
(dp512
g11
I00
sg19
I00
sg37
I100000
sg20
I00
sbsg46
g306
sg20
I00
sg360
g0
(g424
g14
(lp513
I0
aI10000
atp514
Rp515
(dp516
g11
I00
sg19
I00
sg20
I00
sbsg361
g0
(g103
g2
Ntp517
Rp518
(dp519
g11
I00
sg19
I00
sg37
I100000
sg20
I00
sbsg287
S'defaultAnalysis'
p520
sg362
g0
(g382
g2
Ntp521
Rp522
(dp523
g11
I00
sg19
I01
sg20
I00
sg386
g420
sg390
g389
sg388
g389
sbsbasbsg20
I00
sg287
S'p'
p524
sbsI31452560
g443
ssS'_Process__esprefers'
p525
(dp526
sS'_Process__isStrict'
p527
I00
sS'_Process__partialschedules'
p528
(dp529
sS'_Process__outputmodules'
p530
(dp531
sS'_Process__analyzers'
p532
(dp533
g307
g310
sg520
g443
ssS'_Process__InExtendCall'
p534
I00
sS'_Process__producers'
p535
(dp536
sS'_Process__filters'
p537
(dp538
sS'_Process__looper'
p539
NsS'_Process__endpaths'
p540
g0
(cFWCore.ParameterSet.DictTypes
SortedKeysDict
p541
c__builtin__
dict
p542
(dp543
tp544
Rp545
(dp546
S'list'
p547
(lp548
sbsS'_Process__esproducers'
p549
(dp550
sg524
g433
sS'_Process__paths'
p551
g0
(g541
g542
(dp552
g524
g433
stp553
Rp554
(dp555
g547
(lp556
g524
asbsg520
g443
sS'_Process__subProcess'
p557
Nsg291
g293
sS'_Process__schedule'
p558
Nsb.